(dp0
S'cookies'
p1
(dp2
S'wxloadtime'
p3
S'1493207518'
p4
sS'webwx_data_ticket'
p5
S'gSfjW9H8u2P0gDS11W7QAR/j'
p6
sS'wxuin'
p7
S'3496066292'
p8
sS'login_frequency'
p9
S'2'
p10
sS'MM_WX_NOTIFY_STATE'
p11
S'1'
p12
sS'MM_WX_SOUND_STATE'
p13
g12
sS'webwx_auth_ticket'
p14
S'CIsBEL2BzKwNGoABRE/CDfK4diDDC05KR7mQpg6l99J9YSfV+YU89JaARX5GGwymWExnLa17kK7qktvtJfOuQwCL08juqLgB1JwtvdTViw8EW9XEFaJWH3/587rAtBU1Rge41zCDCJ1tuYTcqv1897DAhhzRhyUEm9zwYtnC0qHBSNzMjF4glafoUxg='
p15
sS'last_wxuin'
p16
S'3496066292'
p17
sS'webwxuvid'
p18
S'252a7d16bab750836d081a19cee5685bdd16bbcaa57dd5144d5b7219920e5f433c638b53eb815be120c058fa00e52038'
p19
sS'wxpluginkey'
p20
S'1493205364'
p21
sS'wxsid'
p22
S'9Alp7vfFV6wEdgE9'
p23
sS'mm_lang'
p24
S'zh_CN'
p25
ssS'version'
p26
S'1.3.1'
p27
sS'storage'
p28
(dp29
S'userName'
p30
V@0559cd0256c3827459dd5caf7a843d8137792becd4b2b2789df8afb5cba83ff5
p31
sS'lastInputUserName'
p32
NsS'memberList'
p33
(lp34
(dp35
S'UserName'
p36
g31
sS'City'
p37
S''
p38
sS'DisplayName'
p39
g38
sS'UniFriend'
p40
I0
sS'OwnerUin'
p41
I0
sS'MemberList'
p42
(lp43
sS'PYQuanPin'
p44
V
p45
sS'RemarkPYInitial'
p46
g45
sS'Uin'
p47
L3496066292L
sS'AppAccountFlag'
p48
I0
sS'VerifyFlag'
p49
I0
sS'Province'
p50
g38
sS'KeyWord'
p51
g38
sS'RemarkName'
p52
g45
sS'PYInitial'
p53
g45
sS'ChatRoomId'
p54
I0
sS'HideInputBarFlag'
p55
I0
sVHeadImgFlag
p56
I1
sS'EncryChatRoomId'
p57
g38
sS'AttrStatus'
p58
I0
sS'SnsFlag'
p59
I1
sS'MemberCount'
p60
I0
sVWebWxPluginSwitch
p61
I0
sS'Alias'
p62
g38
sS'Signature'
p63
g45
sS'ContactFlag'
p64
I0
sS'NickName'
p65
V\u5c0f\u5b89
p66
sS'RemarkPYQuanPin'
p67
g45
sS'HeadImgUrl'
p68
V/cgi-bin/mmwebwx-bin/webwxgeticon?seq=40032683&username=@0559cd0256c3827459dd5caf7a843d8137792becd4b2b2789df8afb5cba83ff5&skey=@crypt_5c45189f_7e182eb815c71b01540b1a69c93eefee
p69
sS'Sex'
p70
I1
sS'StarFriend'
p71
I0
sS'Statues'
p72
I0
sa(dp73
VUserName
p74
V@95e81584a8c6cec6ef9db6ee2f144258
p75
sVCity
p76
V\u6606\u660e
p77
sVSnsFlag
p78
I17
sVDisplayName
p79
g45
sVUniFriend
p80
I0
sVMemberCount
p81
I0
sVOwnerUin
p82
I0
sVMemberList
p83
(lp84
sVAlias
p85
Vzongan1991
p86
sVPYQuanPin
p87
Vzongan
p88
sVSignature
p89
g45
sVRemarkPYInitial
p90
g45
sVContactFlag
p91
I3
sVUin
p92
I0
sVNickName
p93
V\u5b97\u5b89
p94
sVAppAccountFlag
p95
I0
sVVerifyFlag
p96
I0
sVRemarkPYQuanPin
p97
g45
sVHeadImgUrl
p98
V/cgi-bin/mmwebwx-bin/webwxgeticon?seq=611350015&username=@95e81584a8c6cec6ef9db6ee2f144258&skey=@crypt_5c45189f_7e182eb815c71b01540b1a69c93eefee
p99
sVKeyWord
p100
Vsiw
p101
sVProvince
p102
V\u4e91\u5357
p103
sVPYInitial
p104
VZA
p105
sVRemarkName
p106
g45
sVIsOwner
p107
I0
sVSex
p108
I1
sVStarFriend
p109
I0
sVHideInputBarFlag
p110
I0
sVChatRoomId
p111
I0
sVEncryChatRoomId
p112
g45
sVAttrStatus
p113
I127095
sVStatues
p114
I0
sa(dp115
VUserName
p116
V@52c0a820f73226aae53c1dd072ad6948d738c999faf4aa8823f007029c7dee42
p117
sVCity
p118
g45
sVSnsFlag
p119
I16
sVDisplayName
p120
g45
sVUniFriend
p121
I0
sVMemberCount
p122
I0
sVOwnerUin
p123
I0
sVMemberList
p124
(lp125
sVAlias
p126
Vzfj13769748753
p127
sVPYQuanPin
p128
Vzongfajun
p129
sVSignature
p130
g45
sVRemarkPYInitial
p131
g45
sVContactFlag
p132
I3
sVUin
p133
I0
sVNickName
p134
V\u5b97\u53d1\u519b
p135
sVAppAccountFlag
p136
I0
sVVerifyFlag
p137
I0
sVRemarkPYQuanPin
p138
g45
sVHeadImgUrl
p139
V/cgi-bin/mmwebwx-bin/webwxgeticon?seq=610250005&username=@52c0a820f73226aae53c1dd072ad6948d738c999faf4aa8823f007029c7dee42&skey=@crypt_5c45189f_7e182eb815c71b01540b1a69c93eefee
p140
sVKeyWord
p141
g45
sVProvince
p142
g45
sVPYInitial
p143
VZFJ
p144
sVRemarkName
p145
g45
sVIsOwner
p146
I0
sVSex
p147
I0
sVStarFriend
p148
I0
sVHideInputBarFlag
p149
I0
sVChatRoomId
p150
I0
sVEncryChatRoomId
p151
g45
sVAttrStatus
p152
I4133
sVStatues
p153
I0
sa(dp154
VUserName
p155
V@2493936689b53db6e2f738799aa3c8b01ead9a8a2bb982ace30ad1a57224e5ca
p156
sVCity
p157
g45
sVSnsFlag
p158
I17
sVDisplayName
p159
g45
sVUniFriend
p160
I0
sVMemberCount
p161
I0
sVOwnerUin
p162
I0
sVMemberList
p163
(lp164
sVAlias
p165
g45
sVPYQuanPin
p166
Vniannian
p167
sVSignature
p168
g45
sVRemarkPYInitial
p169
g45
sVContactFlag
p170
I3
sVUin
p171
I0
sVNickName
p172
V\u5e74\u5e74
p173
sVAppAccountFlag
p174
I0
sVVerifyFlag
p175
I0
sVRemarkPYQuanPin
p176
g45
sVHeadImgUrl
p177
V/cgi-bin/mmwebwx-bin/webwxgeticon?seq=612140030&username=@2493936689b53db6e2f738799aa3c8b01ead9a8a2bb982ace30ad1a57224e5ca&skey=@crypt_5c45189f_7e182eb815c71b01540b1a69c93eefee
p178
sVKeyWord
p179
g45
sVProvince
p180
VWicklow
p181
sVPYInitial
p182
VNN
p183
sVRemarkName
p184
g45
sVIsOwner
p185
I0
sVSex
p186
I2
sVStarFriend
p187
I0
sVHideInputBarFlag
p188
I0
sVChatRoomId
p189
I0
sVEncryChatRoomId
p190
g45
sVAttrStatus
p191
I233509
sVStatues
p192
I0
sa(dp193
VUserName
p194
V@e14984610acb2d74bba8cea88f2221abc7ddf7999bd69dc608d43d17779eb8b0
p195
sVCity
p196
V\u6606\u660e
p197
sVSnsFlag
p198
I17
sVDisplayName
p199
g45
sVUniFriend
p200
I0
sVMemberCount
p201
I0
sVOwnerUin
p202
I0
sVMemberList
p203
(lp204
sVAlias
p205
Vzhanglj1211
p206
sVPYQuanPin
p207
Vzhuimeng
p208
sVSignature
p209
g45
sVRemarkPYInitial
p210
g45
sVContactFlag
p211
I3
sVUin
p212
I0
sVNickName
p213
V\u8ffd\u68a6
p214
sVAppAccountFlag
p215
I0
sVVerifyFlag
p216
I0
sVRemarkPYQuanPin
p217
g45
sVHeadImgUrl
p218
V/cgi-bin/mmwebwx-bin/webwxgeticon?seq=614850104&username=@e14984610acb2d74bba8cea88f2221abc7ddf7999bd69dc608d43d17779eb8b0&skey=@crypt_5c45189f_7e182eb815c71b01540b1a69c93eefee
p219
sVKeyWord
p220
g45
sVProvince
p221
V\u4e91\u5357
p222
sVPYInitial
p223
VZM
p224
sVRemarkName
p225
g45
sVIsOwner
p226
I0
sVSex
p227
I1
sVStarFriend
p228
I0
sVHideInputBarFlag
p229
I0
sVChatRoomId
p230
I0
sVEncryChatRoomId
p231
g45
sVAttrStatus
p232
I167973
sVStatues
p233
I0
sa(dp234
VUserName
p235
V@2da58e2dfb1d12fc6a8b3676d50dccec
p236
sVCity
p237
V\u66f2\u9756
p238
sVSnsFlag
p239
I17
sVDisplayName
p240
g45
sVUniFriend
p241
I0
sVMemberCount
p242
I0
sVOwnerUin
p243
I0
sVMemberList
p244
(lp245
sVAlias
p246
g45
sVPYQuanPin
p247
Vzonglingxian
p248
sVSignature
p249
V\u7ea2\u989c\u6613\u788e\u4e0d\u5982\u626e\u94dc\u5899\u94c1\u58c1
p250
sVRemarkPYInitial
p251
g45
sVContactFlag
p252
I3
sVUin
p253
I0
sVNickName
p254
V\u5b97\u73b2\u4ed9
p255
sVAppAccountFlag
p256
I0
sVVerifyFlag
p257
I0
sVRemarkPYQuanPin
p258
g45
sVHeadImgUrl
p259
V/cgi-bin/mmwebwx-bin/webwxgeticon?seq=617220003&username=@2da58e2dfb1d12fc6a8b3676d50dccec&skey=@crypt_5c45189f_7e182eb815c71b01540b1a69c93eefee
p260
sVKeyWord
p261
Vzon
p262
sVProvince
p263
V\u4e91\u5357
p264
sVPYInitial
p265
VZLX
p266
sVRemarkName
p267
g45
sVIsOwner
p268
I0
sVSex
p269
I2
sVStarFriend
p270
I0
sVHideInputBarFlag
p271
I0
sVChatRoomId
p272
I0
sVEncryChatRoomId
p273
g45
sVAttrStatus
p274
I1127
sVStatues
p275
I0
sa(dp276
VUserName
p277
V@f840fc09a1bd8507fbe16cbcccdc70af
p278
sVCity
p279
V\u6606\u660e
p280
sVSnsFlag
p281
I17
sVDisplayName
p282
g45
sVUniFriend
p283
I0
sVMemberCount
p284
I0
sVOwnerUin
p285
I0
sVMemberList
p286
(lp287
sVAlias
p288
g45
sVPYQuanPin
p289
Vtangrongbin
p290
sVSignature
p291
Vlove is a touch and yet not a touch.
p292
sVRemarkPYInitial
p293
g45
sVContactFlag
p294
I3
sVUin
p295
I0
sVNickName
p296
V\u5510\u8363\u658c
p297
sVAppAccountFlag
p298
I0
sVVerifyFlag
p299
I0
sVRemarkPYQuanPin
p300
g45
sVHeadImgUrl
p301
V/cgi-bin/mmwebwx-bin/webwxgeticon?seq=619730260&username=@f840fc09a1bd8507fbe16cbcccdc70af&skey=@crypt_5c45189f_7e182eb815c71b01540b1a69c93eefee
p302
sVKeyWord
p303
Vtrb
p304
sVProvince
p305
V\u4e91\u5357
p306
sVPYInitial
p307
VTRB
p308
sVRemarkName
p309
g45
sVIsOwner
p310
I0
sVSex
p311
I1
sVStarFriend
p312
I0
sVHideInputBarFlag
p313
I0
sVChatRoomId
p314
I0
sVEncryChatRoomId
p315
g45
sVAttrStatus
p316
I33784231
sVStatues
p317
I0
sa(dp318
VUserName
p319
V@b18dfa4d41039a5237b59dbb3fed89cf444a032c3d4ef524eab9b03b3c5e0268
p320
sVCity
p321
V\u6606\u660e
p322
sVSnsFlag
p323
I17
sVDisplayName
p324
g45
sVUniFriend
p325
I0
sVMemberCount
p326
I0
sVOwnerUin
p327
I0
sVMemberList
p328
(lp329
sVAlias
p330
Vweixinsal001
p331
sVPYQuanPin
p332
VAispanclassemojiemoji1f340span
p333
sVSignature
p334
V<span class="emoji emoji1f33e"></span>
p335
sVRemarkPYInitial
p336
g45
sVContactFlag
p337
I3
sVUin
p338
I0
sVNickName
p339
VAi~\U0001f340
p340
sVAppAccountFlag
p341
I0
sVVerifyFlag
p342
I0
sVRemarkPYQuanPin
p343
g45
sVHeadImgUrl
p344
V/cgi-bin/mmwebwx-bin/webwxgeticon?seq=623474552&username=@b18dfa4d41039a5237b59dbb3fed89cf444a032c3d4ef524eab9b03b3c5e0268&skey=@crypt_5c45189f_7e182eb815c71b01540b1a69c93eefee
p345
sVKeyWord
p346
g45
sVProvince
p347
V\u4e91\u5357
p348
sVPYInitial
p349
VAISPANCLASSEMOJIEMOJI1F340SPAN
p350
sVRemarkName
p351
g45
sVIsOwner
p352
I0
sVSex
p353
I2
sVStarFriend
p354
I0
sVHideInputBarFlag
p355
I0
sVChatRoomId
p356
I0
sVEncryChatRoomId
p357
g45
sVAttrStatus
p358
I102437
sVStatues
p359
I0
sa(dp360
VUserName
p361
V@b76655459b594f0fd3d33d2659109ee4c11b069db4b37a123d66acfd212ee19f
p362
sVCity
p363
V\u66f2\u9756
p364
sVSnsFlag
p365
I17
sVDisplayName
p366
g45
sVUniFriend
p367
I0
sVMemberCount
p368
I0
sVOwnerUin
p369
I0
sVMemberList
p370
(lp371
sVAlias
p372
VP_Dreame_Q
p373
sVPYQuanPin
p374
VSunshine
p375
sVSignature
p376
V\u52ff\u671f\u671b\uff0c\u4e0d\u5931\u671b
p377
sVRemarkPYInitial
p378
g45
sVContactFlag
p379
I1
sVUin
p380
I0
sVNickName
p381
VSunshine
p382
sVAppAccountFlag
p383
I0
sVVerifyFlag
p384
I0
sVRemarkPYQuanPin
p385
g45
sVHeadImgUrl
p386
V/cgi-bin/mmwebwx-bin/webwxgeticon?seq=623473977&username=@b76655459b594f0fd3d33d2659109ee4c11b069db4b37a123d66acfd212ee19f&skey=@crypt_5c45189f_7e182eb815c71b01540b1a69c93eefee
p387
sVKeyWord
p388
g45
sVProvince
p389
V\u4e91\u5357
p390
sVPYInitial
p391
VSUNSHINE
p392
sVRemarkName
p393
g45
sVIsOwner
p394
I0
sVSex
p395
I2
sVStarFriend
p396
I0
sVHideInputBarFlag
p397
I0
sVChatRoomId
p398
I0
sVEncryChatRoomId
p399
g45
sVAttrStatus
p400
I33656957
sVStatues
p401
I0
sa(dp402
VUserName
p403
V@d561bba0f4869875ff454a0205775f570d18ba16ccd7bf39e6c8b7b5645c0988
p404
sVCity
p405
V\u66f2\u9756
p406
sVSnsFlag
p407
I1
sVDisplayName
p408
g45
sVUniFriend
p409
I0
sVMemberCount
p410
I0
sVOwnerUin
p411
I0
sVMemberList
p412
(lp413
sVAlias
p414
Vzong159049
p415
sVPYQuanPin
p416
Vzxiaoxue
p417
sVSignature
p418
V\u5fc3\u5982\u6b62\u6c34
p419
sVRemarkPYInitial
p420
g45
sVContactFlag
p421
I3
sVUin
p422
I0
sVNickName
p423
Vz\u5c0f\u5b66
p424
sVAppAccountFlag
p425
I0
sVVerifyFlag
p426
I0
sVRemarkPYQuanPin
p427
g45
sVHeadImgUrl
p428
V/cgi-bin/mmwebwx-bin/webwxgeticon?seq=623470052&username=@d561bba0f4869875ff454a0205775f570d18ba16ccd7bf39e6c8b7b5645c0988&skey=@crypt_5c45189f_7e182eb815c71b01540b1a69c93eefee
p429
sVKeyWord
p430
g45
sVProvince
p431
V\u4e91\u5357
p432
sVPYInitial
p433
VZXX
p434
sVRemarkName
p435
g45
sVIsOwner
p436
I0
sVSex
p437
I1
sVStarFriend
p438
I0
sVHideInputBarFlag
p439
I0
sVChatRoomId
p440
I0
sVEncryChatRoomId
p441
g45
sVAttrStatus
p442
I4133
sVStatues
p443
I0
sa(dp444
VUserName
p445
V@c542b65d807d9565b22044edd5d8da80bc9c9bfd1df0089da1b4bcbabb1198a3
p446
sVCity
p447
V\u6606\u660e
p448
sVSnsFlag
p449
I17
sVDisplayName
p450
g45
sVUniFriend
p451
I0
sVMemberCount
p452
I0
sVOwnerUin
p453
I0
sVMemberList
p454
(lp455
sVAlias
p456
Vlqz13769133408
p457
sVPYQuanPin
p458
Vlongqiongzhangchengchanglonghuahui
p459
sVSignature
p460
V\u4ee5\u82b1\u4e3a\u5a92\uff0c\u4ea4\u5929\u4e0b\u670b\u53cb\u000a\u7ec4\u4e0a\u7b49\u82b1\uff0c\u8bda\u5bf9\u65b0\u8001\u5ba2\u6237\u000a\u6c42\u7f18\u5206\uff0c\u751f\u610f\u5e38\u5728
p461
sVRemarkPYInitial
p462
g45
sVContactFlag
p463
I65539
sVUin
p464
I0
sVNickName
p465
V\u9f99\u743c\u7ae0 (\u665f\u660c\u9f99\u82b1\u5349)
p466
sVAppAccountFlag
p467
I0
sVVerifyFlag
p468
I0
sVRemarkPYQuanPin
p469
g45
sVHeadImgUrl
p470
V/cgi-bin/mmwebwx-bin/webwxgeticon?seq=614850054&username=@c542b65d807d9565b22044edd5d8da80bc9c9bfd1df0089da1b4bcbabb1198a3&skey=@crypt_5c45189f_7e182eb815c71b01540b1a69c93eefee
p471
sVKeyWord
p472
g45
sVProvince
p473
V\u4e91\u5357
p474
sVPYInitial
p475
VLQZCCLHH
p476
sVRemarkName
p477
g45
sVIsOwner
p478
I0
sVSex
p479
I1
sVStarFriend
p480
I0
sVHideInputBarFlag
p481
I0
sVChatRoomId
p482
I0
sVEncryChatRoomId
p483
g45
sVAttrStatus
p484
I135205
sVStatues
p485
I0
sa(dp486
VUserName
p487
V@ddcf1e898c7418d0a5199bb365e16cacba382a87eb6742e175ab488aa94190d7
p488
sVCity
p489
g45
sVSnsFlag
p490
I17
sVDisplayName
p491
g45
sVUniFriend
p492
I0
sVMemberCount
p493
I0
sVOwnerUin
p494
I0
sVMemberList
p495
(lp496
sVAlias
p497
Vxiagxiag666222888999
p498
sVPYQuanPin
p499
Vfoyuan
p500
sVSignature
p501
g45
sVRemarkPYInitial
p502
g45
sVContactFlag
p503
I65539
sVUin
p504
I0
sVNickName
p505
V\u4f5b\u7f18
p506
sVAppAccountFlag
p507
I0
sVVerifyFlag
p508
I0
sVRemarkPYQuanPin
p509
g45
sVHeadImgUrl
p510
V/cgi-bin/mmwebwx-bin/webwxgeticon?seq=619730491&username=@ddcf1e898c7418d0a5199bb365e16cacba382a87eb6742e175ab488aa94190d7&skey=@crypt_5c45189f_7e182eb815c71b01540b1a69c93eefee
p511
sVKeyWord
p512
g45
sVProvince
p513
g45
sVPYInitial
p514
VFY
p515
sVRemarkName
p516
g45
sVIsOwner
p517
I0
sVSex
p518
I1
sVStarFriend
p519
I0
sVHideInputBarFlag
p520
I0
sVChatRoomId
p521
I0
sVEncryChatRoomId
p522
g45
sVAttrStatus
p523
I4261
sVStatues
p524
I0
sa(dp525
VUserName
p526
V@04dfc071188a02d870fbd2fe6175ccdc6b0169a4dc049c08b436adac39ee9a41
p527
sVCity
p528
V\u66f2\u9756
p529
sVSnsFlag
p530
I17
sVDisplayName
p531
g45
sVUniFriend
p532
I0
sVMemberCount
p533
I0
sVOwnerUin
p534
I0
sVMemberList
p535
(lp536
sVAlias
p537
VLyyl_Wowo48
p538
sVPYQuanPin
p539
Vheidebaidehuidespanclassemojiemoji1f340span
p540
sVSignature
p541
V\u82b1\u5e97\u5173\u4e86\uff0c\u82b1\u5f00\u4e86\u3002
p542
sVRemarkPYInitial
p543
g45
sVContactFlag
p544
I1
sVUin
p545
I0
sVNickName
p546
V\u9ed1\u7684\u767d\u7684\u7070\u7684\U0001f340
p547
sVAppAccountFlag
p548
I0
sVVerifyFlag
p549
I0
sVRemarkPYQuanPin
p550
g45
sVHeadImgUrl
p551
V/cgi-bin/mmwebwx-bin/webwxgeticon?seq=623474666&username=@04dfc071188a02d870fbd2fe6175ccdc6b0169a4dc049c08b436adac39ee9a41&skey=@crypt_5c45189f_7e182eb815c71b01540b1a69c93eefee
p552
sVKeyWord
p553
g45
sVProvince
p554
V\u4e91\u5357
p555
sVPYInitial
p556
VHDBDHDSPANCLASSEMOJIEMOJI1F340SPAN
p557
sVRemarkName
p558
g45
sVIsOwner
p559
I0
sVSex
p560
I2
sVStarFriend
p561
I0
sVHideInputBarFlag
p562
I0
sVChatRoomId
p563
I0
sVEncryChatRoomId
p564
g45
sVAttrStatus
p565
I16897063
sVStatues
p566
I0
sa(dp567
VUserName
p568
V@3d3c138ac2b547418138ae4e2ae56638
p569
sVCity
p570
V\u6606\u660e
p571
sVSnsFlag
p572
I17
sVDisplayName
p573
g45
sVUniFriend
p574
I0
sVMemberCount
p575
I0
sVOwnerUin
p576
I0
sVMemberList
p577
(lp578
sVAlias
p579
Vlittle-rainning
p580
sVPYQuanPin
p581
Vguyue
p582
sVSignature
p583
V<span class="emoji emoji1f343"></span>\u65e5\u5b50\u5c31\u8981\u50cf\u82b1\u513f\u90a3\u822c\u707f\u70c2<span class="emoji emoji1f338"></span><span class="emoji emoji1f33b"></span>
p584
sVRemarkPYInitial
p585
g45
sVContactFlag
p586
I1
sVUin
p587
I0
sVNickName
p588
V\u53e4\u6708
p589
sVAppAccountFlag
p590
I0
sVVerifyFlag
p591
I0
sVRemarkPYQuanPin
p592
g45
sVHeadImgUrl
p593
V/cgi-bin/mmwebwx-bin/webwxgeticon?seq=623474709&username=@3d3c138ac2b547418138ae4e2ae56638&skey=@crypt_5c45189f_7e182eb815c71b01540b1a69c93eefee
p594
sVKeyWord
p595
Vhux
p596
sVProvince
p597
V\u4e91\u5357
p598
sVPYInitial
p599
VGY
p600
sVRemarkName
p601
g45
sVIsOwner
p602
I0
sVSex
p603
I2
sVStarFriend
p604
I0
sVHideInputBarFlag
p605
I0
sVChatRoomId
p606
I0
sVEncryChatRoomId
p607
g45
sVAttrStatus
p608
I16881893
sVStatues
p609
I0
sa(dp610
VUserName
p611
V@7b37708dbbe3e535172325949c6bc424
p612
sVCity
p613
V\u6606\u660e
p614
sVSnsFlag
p615
I17
sVDisplayName
p616
g45
sVUniFriend
p617
I0
sVMemberCount
p618
I0
sVOwnerUin
p619
I0
sVMemberList
p620
(lp621
sVAlias
p622
VBABOkey
p623
sVPYQuanPin
p624
VAAtouyingjibingmuyinxiang18788497301bai
p625
sVSignature
p626
V\u6295\u5f71\u673a\u3001\u5c4f\u5e55\u3001\u97f3\u54cd2017\u73b0\u8d27\u6279\u53d1\uff01\u79d2\u53d1\uff01\u79d2\u9001\uff01\u7968\u88d518788497301
p627
sVRemarkPYInitial
p628
g45
sVContactFlag
p629
I65539
sVUin
p630
I0
sVNickName
p631
VAA\u6295\u5f71\u673a\u5c4f\u5e55\u97f3\u54cd18788497301\u767d
p632
sVAppAccountFlag
p633
I0
sVVerifyFlag
p634
I0
sVRemarkPYQuanPin
p635
g45
sVHeadImgUrl
p636
V/cgi-bin/mmwebwx-bin/webwxgeticon?seq=623474715&username=@7b37708dbbe3e535172325949c6bc424&skey=@crypt_5c45189f_7e182eb815c71b01540b1a69c93eefee
p637
sVKeyWord
p638
Vbai
p639
sVProvince
p640
V\u4e91\u5357
p641
sVPYInitial
p642
VAATYJBMYX18788497301B
p643
sVRemarkName
p644
g45
sVIsOwner
p645
I0
sVSex
p646
I1
sVStarFriend
p647
I0
sVHideInputBarFlag
p648
I0
sVChatRoomId
p649
I0
sVEncryChatRoomId
p650
g45
sVAttrStatus
p651
L2151780453L
sVStatues
p652
I0
sa(dp653
VUserName
p654
V@0ac8136d334ce8eccc39e7765869e597
p655
sVCity
p656
g45
sVSnsFlag
p657
I49
sVDisplayName
p658
g45
sVUniFriend
p659
I0
sVMemberCount
p660
I0
sVOwnerUin
p661
I0
sVMemberList
p662
(lp663
sVAlias
p664
Vcolorcoco
p665
sVPYQuanPin
p666
Vyushushu
p667
sVSignature
p668
g45
sVRemarkPYInitial
p669
g45
sVContactFlag
p670
I3
sVUin
p671
I0
sVNickName
p672
V\u7389\u8700\u9ecd
p673
sVAppAccountFlag
p674
I0
sVVerifyFlag
p675
I0
sVRemarkPYQuanPin
p676
g45
sVHeadImgUrl
p677
V/cgi-bin/mmwebwx-bin/webwxgeticon?seq=623474677&username=@0ac8136d334ce8eccc39e7765869e597&skey=@crypt_5c45189f_7e182eb815c71b01540b1a69c93eefee
p678
sVKeyWord
p679
Vyup
p680
sVProvince
p681
g45
sVPYInitial
p682
VYSS
p683
sVRemarkName
p684
g45
sVIsOwner
p685
I0
sVSex
p686
I2
sVStarFriend
p687
I0
sVHideInputBarFlag
p688
I0
sVChatRoomId
p689
I0
sVEncryChatRoomId
p690
g45
sVAttrStatus
p691
I83173
sVStatues
p692
I0
sasS'chatroomList'
p693
(lp694
(dp695
VUserName
p696
V@@e953c4ca2e14486bd596c8e7548815e795ecb0a0c4958c0f2226eaca07609cf1
p697
sVCity
p698
g45
sVSnsFlag
p699
I0
sVDisplayName
p700
g45
sVUniFriend
p701
I0
sVMemberCount
p702
I3
sVOwnerUin
p703
I0
sVMemberList
p704
ccopy_reg
_reconstructor
p705
(citchat.storage.templates
ContactList
p706
c__builtin__
list
p707
(lp708
tp709
Rp710
sVAlias
p711
g45
sVPYQuanPin
p712
g45
sVSignature
p713
g45
sVRemarkPYInitial
p714
g45
sVContactFlag
p715
I0
sVUin
p716
I0
sVNickName
p717
V\u5b97\u5b89,\u54ce\u5466\u5582,\u5c0f\u5b89
p718
sVAppAccountFlag
p719
I0
sVVerifyFlag
p720
I0
sVRemarkPYQuanPin
p721
g45
sVHeadImgUrl
p722
V/cgi-bin/mmwebwx-bin/webwxgetheadimg?seq=0&username=@@e953c4ca2e14486bd596c8e7548815e795ecb0a0c4958c0f2226eaca07609cf1&skey=@crypt_5c45189f_7e182eb815c71b01540b1a69c93eefee
p723
sVKeyWord
p724
g45
sVProvince
p725
g45
sVPYInitial
p726
g45
sVRemarkName
p727
g45
sVStarFriend
p728
I0
sVSex
p729
I0
sVChatRoomId
p730
I0
sVHideInputBarFlag
p731
I0
sVIsOwner
p732
I0
sVEncryChatRoomId
p733
g45
sVAttrStatus
p734
I0
sVStatues
p735
I1
sasS'nickName'
p736
g66
sS'mpList'
p737
(lp738
(dp739
VUserName
p740
V@d8b683f61bdebdaaa721779088f622f7
p741
sVCity
p742
V\u6d77\u6dc0
p743
sVSnsFlag
p744
I0
sVDisplayName
p745
g45
sVUniFriend
p746
I0
sVMemberCount
p747
I0
sVOwnerUin
p748
I0
sVMemberList
p749
(lp750
sVAlias
p751
Vautohomeweixin
p752
sVPYQuanPin
p753
Vqichezhijia
p754
sVSignature
p755
V\u60a8\u8eab\u8fb9\u7684\u61c2\u8f66\u5bb6\u4eba\uff0c\u7ed9\u60a8\u5e26\u6765\u4e70\u8f66\u7528\u8f66\u53ca\u8f66\u751f\u6d3b\u7684\u5168\u7a0b\u670d\u52a1\uff0c\u503c\u5f97\u4fe1\u8d56\u7684\u4e92\u8054\u7f51\u6c7d\u8f66\u8425\u9500\u5e73\u53f0\u3002
p756
sVRemarkPYInitial
p757
g45
sVContactFlag
p758
I3
sVUin
p759
I0
sVNickName
p760
V\u6c7d\u8f66\u4e4b\u5bb6
p761
sVAppAccountFlag
p762
I0
sVVerifyFlag
p763
I24
sVRemarkPYQuanPin
p764
g45
sVHeadImgUrl
p765
V/cgi-bin/mmwebwx-bin/webwxgeticon?seq=619730103&username=@d8b683f61bdebdaaa721779088f622f7&skey=@crypt_5c45189f_7e182eb815c71b01540b1a69c93eefee
p766
sVKeyWord
p767
Vgh_
p768
sVProvince
p769
V\u5317\u4eac
p770
sVPYInitial
p771
VQCZJ
p772
sVRemarkName
p773
g45
sVIsOwner
p774
I0
sVSex
p775
I0
sVStarFriend
p776
I0
sVHideInputBarFlag
p777
I0
sVChatRoomId
p778
I0
sVEncryChatRoomId
p779
g45
sVAttrStatus
p780
I0
sVStatues
p781
I0
sa(dp782
VUserName
p783
V@d14679f8d08c6ca14f35dfb2a02c6193
p784
sVCity
p785
V\u6606\u660e
p786
sVSnsFlag
p787
I0
sVDisplayName
p788
g45
sVUniFriend
p789
I0
sVMemberCount
p790
I0
sVOwnerUin
p791
I0
sVMemberList
p792
(lp793
sVAlias
p794
g45
sVPYQuanPin
p795
Vyunnaheyuzhuangshi
p796
sVSignature
p797
V\u4e3b\u8981\u627f\u63a5\uff1a\u5bb6\u5c45\u3001\u5546\u4e1a\u5e97\u94fa\uff08\u8fde\u9501\u5e97\uff09\u3001\u529e\u516c\u3001\u9152\u5e97\u3001\u522b\u5885\u7b49\u88c5\u9970\u5de5\u7a0b\u65bd\u5de5\uff0c\u751f\u4ea7\u5b9a\u5236\u5404\u7c7b\u5c55\u5385\u5c55\u67dc\u3001\u4e13\u67dc\uff08\u70e4\u6f06\u3001\u73bb\u7483\u3001\u5b9e\u6728\u7b49\u6210\u54c1\u67dc\uff09\uff0c\u516c\u53f8\u4ee5\u8bbe\u8ba1\u4e3a\u6838\u5fc3\u4e0d\u65ad\u5bfb\u6c42\u88c5\u9970\u884c\u4e1a\u7684\u79c1\u5bfc\u6027\u3001\u81ea\u6211\u4e2a\u6027\u98ce\u683c\u521b\u4f5c\u7075\u9b42\u4e3a\u5ba2\u6237\u8bbe\u8ba1\u51fa\u60a8\u7684\u7406\u5ff5\u9700\u6c42\u3002
p798
sVRemarkPYInitial
p799
g45
sVContactFlag
p800
I3
sVUin
p801
I0
sVNickName
p802
V\u4e91\u5357\u9e64\u7389\u88c5\u9970
p803
sVAppAccountFlag
p804
I0
sVVerifyFlag
p805
I8
sVRemarkPYQuanPin
p806
g45
sVHeadImgUrl
p807
V/cgi-bin/mmwebwx-bin/webwxgeticon?seq=606910278&username=@d14679f8d08c6ca14f35dfb2a02c6193&skey=@crypt_5c45189f_7e182eb815c71b01540b1a69c93eefee
p808
sVKeyWord
p809
Vgh_
p810
sVProvince
p811
V\u4e91\u5357
p812
sVPYInitial
p813
VYNHYZS
p814
sVRemarkName
p815
g45
sVIsOwner
p816
I0
sVSex
p817
I0
sVStarFriend
p818
I0
sVHideInputBarFlag
p819
I0
sVChatRoomId
p820
I0
sVEncryChatRoomId
p821
g45
sVAttrStatus
p822
I0
sVStatues
p823
I0
sa(dp824
VUserName
p825
V@0557148a08e4786d6fd9e445c8eeb05e
p826
sVCity
p827
V\u6606\u660e
p828
sVSnsFlag
p829
I0
sVDisplayName
p830
g45
sVUniFriend
p831
I0
sVMemberCount
p832
I0
sVOwnerUin
p833
I0
sVMemberList
p834
(lp835
sVAlias
p836
Vdmq100
p837
sVPYQuanPin
p838
Vyunnadumuqiaojiaoyozixunyouxiangongsi
p839
sVSignature
p840
V\u6559\u80b2\u4fe1\u606f\u54a8\u8be2\uff1b\u56fd\u5185\u7248\u4e66\u520a\u7684\u9500\u552e\u3002
p841
sVRemarkPYInitial
p842
g45
sVContactFlag
p843
I3
sVUin
p844
I0
sVNickName
p845
V\u4e91\u5357\u72ec\u6728\u6865\u6559\u80b2\u54a8\u8be2\u6709\u9650\u516c\u53f8
p846
sVAppAccountFlag
p847
I0
sVVerifyFlag
p848
I24
sVRemarkPYQuanPin
p849
g45
sVHeadImgUrl
p850
V/cgi-bin/mmwebwx-bin/webwxgeticon?seq=608360022&username=@0557148a08e4786d6fd9e445c8eeb05e&skey=@crypt_5c45189f_7e182eb815c71b01540b1a69c93eefee
p851
sVKeyWord
p852
Vgh_
p853
sVProvince
p854
V\u4e91\u5357
p855
sVPYInitial
p856
VYNDMQJYZXYXGS
p857
sVRemarkName
p858
g45
sVIsOwner
p859
I0
sVSex
p860
I0
sVStarFriend
p861
I0
sVHideInputBarFlag
p862
I0
sVChatRoomId
p863
I0
sVEncryChatRoomId
p864
g45
sVAttrStatus
p865
I0
sVStatues
p866
I0
sa(dp867
VUserName
p868
V@83655663226375b000ba56ecf0afa5de
p869
sVCity
p870
V\u6606\u660e
p871
sVSnsFlag
p872
I0
sVDisplayName
p873
g45
sVUniFriend
p874
I0
sVMemberCount
p875
I0
sVOwnerUin
p876
I0
sVMemberList
p877
(lp878
sVAlias
p879
VMr_ZongAn
p880
sVPYQuanPin
p881
VMrZong
p882
sVSignature
p883
VJust Do IT\uff0c\u5f88\u591a\u5b69\u5b50\u542c\u4e86\u4e54\u4e39\u7684\u8bdd\uff0c\u4ece\u6b64\u8fdb\u5165\u4e86IT\u884c\u4e1a\u3002
p884
sVRemarkPYInitial
p885
g45
sVContactFlag
p886
I3
sVUin
p887
I0
sVNickName
p888
VMrZong
p889
sVAppAccountFlag
p890
I0
sVVerifyFlag
p891
I8
sVRemarkPYQuanPin
p892
g45
sVHeadImgUrl
p893
V/cgi-bin/mmwebwx-bin/webwxgeticon?seq=608360071&username=@83655663226375b000ba56ecf0afa5de&skey=@crypt_5c45189f_7e182eb815c71b01540b1a69c93eefee
p894
sVKeyWord
p895
Vgh_
p896
sVProvince
p897
V\u4e91\u5357
p898
sVPYInitial
p899
VMRZONG
p900
sVRemarkName
p901
g45
sVIsOwner
p902
I0
sVSex
p903
I0
sVStarFriend
p904
I0
sVHideInputBarFlag
p905
I0
sVChatRoomId
p906
I0
sVEncryChatRoomId
p907
g45
sVAttrStatus
p908
I0
sVStatues
p909
I0
sa(dp910
VUserName
p911
V@f1ffedf8f9664f689fa690cf2c0d7503
p912
sVCity
p913
V\u6606\u660e
p914
sVSnsFlag
p915
I0
sVDisplayName
p916
g45
sVUniFriend
p917
I0
sVMemberCount
p918
I0
sVOwnerUin
p919
I0
sVMemberList
p920
(lp921
sVAlias
p922
g45
sVPYQuanPin
p923
Vyunnanongjinhuahuiyouxiangongsi
p924
sVSignature
p925
V\u56fd\u5185\u8d38\u6613\u3001\u7269\u8d44\u4f9b\u9500\uff0c\u8fdb\u51fa\u53e3\u8d38\u6613\uff0c\u7535\u5b50\u5546\u52a1\uff0c\u82b1\u5349\u7684\u79cd\u690d\u53ca\u9500\u552e\u3002
p926
sVRemarkPYInitial
p927
g45
sVContactFlag
p928
I3
sVUin
p929
I0
sVNickName
p930
V\u4e91\u5357\u519c\u9526\u82b1\u5349\u6709\u9650\u516c\u53f8
p931
sVAppAccountFlag
p932
I0
sVVerifyFlag
p933
I24
sVRemarkPYQuanPin
p934
g45
sVHeadImgUrl
p935
V/cgi-bin/mmwebwx-bin/webwxgeticon?seq=608360076&username=@f1ffedf8f9664f689fa690cf2c0d7503&skey=@crypt_5c45189f_7e182eb815c71b01540b1a69c93eefee
p936
sVKeyWord
p937
Vgh_
p938
sVProvince
p939
V\u4e91\u5357
p940
sVPYInitial
p941
VYNNJHHYXGS
p942
sVRemarkName
p943
g45
sVIsOwner
p944
I0
sVSex
p945
I0
sVStarFriend
p946
I0
sVHideInputBarFlag
p947
I0
sVChatRoomId
p948
I0
sVEncryChatRoomId
p949
g45
sVAttrStatus
p950
I0
sVStatues
p951
I0
sa(dp952
VUserName
p953
V@d9c7a3aa1930e786c0cc031d13ea562b
p954
sVCity
p955
V\u6606\u660e
p956
sVSnsFlag
p957
I0
sVDisplayName
p958
g45
sVUniFriend
p959
I0
sVMemberCount
p960
I0
sVOwnerUin
p961
I0
sVMemberList
p962
(lp963
sVAlias
p964
g45
sVPYQuanPin
p965
Vyunnayinruankejiyouxiangongsi
p966
sVSignature
p967
V\u4f01\u4e1a\u7f51\u7edc\u54c1\u724c\u5ba3\u4f20\u3001\u7f51\u7edc\u8425\u9500\uff0c\u4f01\u4e1a\u7f51\u7ad9\u8ba2\u5236\u4e0e\u63a8\u5e7f\uff1b\u5fae\u4fe1\u5546\u57ce\u3001\u5fae\u4fe1\u8425\u9500\u3001\u5fae\u4fe1\u516c\u4f17\u5e73\u53f0\uff1bAPP\u5546\u57ce\u53ca\u5176\u4ed6\u8f6f\u4ef6\u5f00\u53d1\uff1b\u4f01\u4e1aCRM\u3001OA\u53caERP\u7cfb\u7edf\u7684\u5f00\u53d1\u4e0e\u642d\u5efa\u7b49\u4e1a\u52a1\u3002
p968
sVRemarkPYInitial
p969
g45
sVContactFlag
p970
I1
sVUin
p971
I0
sVNickName
p972
V\u4e91\u5357\u94f6\u8f6f\u79d1\u6280\u6709\u9650\u516c\u53f8
p973
sVAppAccountFlag
p974
I0
sVVerifyFlag
p975
I24
sVRemarkPYQuanPin
p976
g45
sVHeadImgUrl
p977
V/cgi-bin/mmwebwx-bin/webwxgeticon?seq=609230006&username=@d9c7a3aa1930e786c0cc031d13ea562b&skey=@crypt_5c45189f_7e182eb815c71b01540b1a69c93eefee
p978
sVKeyWord
p979
Vgh_
p980
sVProvince
p981
V\u4e91\u5357
p982
sVPYInitial
p983
VYNYRKJYXGS
p984
sVRemarkName
p985
g45
sVIsOwner
p986
I0
sVSex
p987
I0
sVStarFriend
p988
I0
sVHideInputBarFlag
p989
I0
sVChatRoomId
p990
I0
sVEncryChatRoomId
p991
g45
sVAttrStatus
p992
I0
sVStatues
p993
I0
sa(dp994
VUserName
p995
V@e3a1d2f7f9636ad90162ce148a9bcb4a
p996
sVCity
p997
V\u6606\u660e
p998
sVSnsFlag
p999
I0
sVDisplayName
p1000
g45
sVUniFriend
p1001
I0
sVMemberCount
p1002
I0
sVOwnerUin
p1003
I0
sVMemberList
p1004
(lp1005
sVAlias
p1006
g45
sVPYQuanPin
p1007
Vhongxinghaoyunkuajingwuliupingtai
p1008
sVSignature
p1009
V\u7acb\u8db3\u4e91\u5357\uff0c\u9762\u5411\u4e1c\u5357\u4e9a\uff0c\u8f90\u5c04\u56fd\u5185\u7684\u8de8\u5883\u7269\u6d41\u516c\u4f17\u5e73\u53f0\u3002\u81f4\u529b\u642d\u5efa\u6e44\u516c\u6cb3\u6b21\u533a\u57df\u8de8\u5883\u8d27\u8fd0\u8f66\u8f86\u8fd0\u529b\u6c60\uff0c\u6784\u5efa\u8de8\u5883\u7269\u6d41\u4ea7\u4e1a\u751f\u6001\u5708\u3002\u4e3a\u8f66\u4e3b\u548c\u8d27\u4e3b\u63d0\u4f9b\u76f4\u63a5\u7ebf\u4e0a\u5bf9\u63a5\u7684\u529f\u80fd\uff0c\u53ca\u65f6\u83b7\u53d6\u8d27\u6e90\u53ca\u8f66\u6e90,\u5b8c\u6210\u63a5\u5355\u3001\u8fd0\u8f93\u3001\u6536\u8d27\u3001\u6536\u6b3e\u7b49\u8fc7\u7a0b\u3002
p1010
sVRemarkPYInitial
p1011
g45
sVContactFlag
p1012
I3
sVUin
p1013
I0
sVNickName
p1014
V\u5b8f\u661f\u597d\u8fd0\u8de8\u5883\u7269\u6d41\u5e73\u53f0
p1015
sVAppAccountFlag
p1016
I0
sVVerifyFlag
p1017
I24
sVRemarkPYQuanPin
p1018
g45
sVHeadImgUrl
p1019
V/cgi-bin/mmwebwx-bin/webwxgeticon?seq=623474693&username=@e3a1d2f7f9636ad90162ce148a9bcb4a&skey=@crypt_5c45189f_7e182eb815c71b01540b1a69c93eefee
p1020
sVKeyWord
p1021
Vgh_
p1022
sVProvince
p1023
V\u4e91\u5357
p1024
sVPYInitial
p1025
VHXHYKJWLPT
p1026
sVRemarkName
p1027
g45
sVIsOwner
p1028
I0
sVSex
p1029
I0
sVStarFriend
p1030
I0
sVHideInputBarFlag
p1031
I0
sVChatRoomId
p1032
I0
sVEncryChatRoomId
p1033
g45
sVAttrStatus
p1034
I0
sVStatues
p1035
I0
sassS'loginInfo'
p1036
(dp1037
S'SyncKey'
p1038
(dp1039
VCount
p1040
I4
sVList
p1041
(lp1042
(dp1043
VVal
p1044
I623474730
sVKey
p1045
I1
sa(dp1046
VVal
p1047
I623474774
sVKey
p1048
I2
sa(dp1049
VVal
p1050
I623474763
sVKey
p1051
I3
sa(dp1052
VVal
p1053
I1493205364
sVKey
p1054
I1000
sassS'syncUrl'
p1055
S'https://webpush.wx2.qq.com/cgi-bin/mmwebwx-bin'
p1056
sS'skey'
p1057
V@crypt_5c45189f_7e182eb815c71b01540b1a69c93eefee
p1058
sS'wxuin'
p1059
V3496066292
p1060
sS'synckey'
p1061
S'1_623474730|2_623474774|3_623474763|1000_1493205364'
p1062
sS'url'
p1063
Vhttps://wx2.qq.com/cgi-bin/mmwebwx-bin
p1064
sS'pass_ticket'
p1065
V5aoxdoiVxXWQtfCQGaUci74raaysOO9moLK9UKLDdHxJq5lJe85Bnl1wiJf8uOLx
p1066
sS'wxsid'
p1067
V9Alp7vfFV6wEdgE9
p1068
sS'BaseRequest'
p1069
(dp1070
g47
g1060
sS'Skey'
p1071
g1058
sS'DeviceID'
p1072
g1066
sS'Sid'
p1073
g1068
ssS'deviceid'
p1074
S'e341356022028108'
p1075
sS'fileUrl'
p1076
S'https://file.wx2.qq.com/cgi-bin/mmwebwx-bin'
p1077
sS'InviteStartCount'
p1078
I40
sS'User'
p1079
g705
(citchat.storage.templates
User
p1080
c__builtin__
dict
p1081
(dp1082
g36
g31
sg37
g38
sg39
g38
sg40
I0
sg42
g43
sg44
g45
sg46
g45
sg70
I1
sg48
I0
sg49
I0
sg50
g38
sg51
g38
sg52
g45
sg53
g45
sg54
I0
sg55
I0
sg56
I1
sg57
g38
sg58
I0
sg61
I0
sg59
I1
sg60
I0
sg41
I0
sg62
g38
sg63
g45
sg64
I0
sg65
g66
sg67
g45
sg68
g69
sg47
L3496066292L
sg71
I0
sg72
I0
stp1083
Rp1084
(dp1085
g36
g31
sg37
g38
sg39
g38
sg40
I0
sg42
g43
sg44
g45
sg46
g45
sg70
I1
sg48
I0
sg49
I0
sg50
g38
sg51
g38
sg52
g45
sg53
g45
sg54
I0
sg55
I0
sg56
I1
sg57
g38
sg58
I0
sg61
I0
sg59
I1
sg60
I0
sg41
I0
sg62
g38
sg63
g45
sg64
I0
sg65
g66
sg67
g45
sg68
g69
sg47
L3496066292L
sg71
I0
sg72
I0
sbss.