(dp0
S'cookies'
p1
(dp2
S'webwx_data_ticket'
p3
<<<<<<< HEAD
S'gSdbADhpPP4QrDiVO9uxhm9Y'
=======
S'gSfF/bLsiBSGdQIjcE//I0wi'
>>>>>>> 2096059369bd2f711f1490b707324a39314e76ac
p4
sS'wxuin'
p5
S'3496066292'
p6
sS'webwxuvid'
p7
<<<<<<< HEAD
S'252a7d16bab750836d081a19cee5685b317f1d6a10bda87188c4f968a340976be7c33afc9c92492a8ab78e1bcbc63cb2'
p8
sS'webwx_auth_ticket'
p9
S'CIsBEKH829kEGoABVS1wNN7+peNEVfVIDzxu+A6l99J9YSfV+YU89JaARX5wBAAVFe57pIUzRJsaI28FFdami7DhiNz7WMcw8C0db7sW6tSOuDDwJDVYZ7cMh9QobN9NiNvNQXGNeShk7QdYqafw4L7y4mYcAxSydNpHs9nC0qHBSNzMjF4glafoUxg='
p10
sS'wxloadtime'
p11
S'1493258566'
p12
sS'wxsid'
p13
S'CqEZipzAxGcBAigq'
=======
S'86d9e511365564f48bd685ad49ee5f071bf42e1580def1f68c2bf338156e45a682c2a8155d6aaec023c4ba849ca0d221'
p8
sS'webwx_auth_ticket'
p9
S'CIsBEMD3+/sDGoABibBtMvjk5bwIW+aUohiktEOD+H+6qGxfVxwVL80LBwNnvI2ob8iB+ugglgffQ5yvl61Dt14DeDA5nQ4H7EFMUeVQTeqdGyGXhs2j3G5Yqf6Mmh42kg868t2DqT52GI2GXLnTB9b7OedCi5anBSOs+scuTSZ/BoM93sfopjluH8U='
p10
sS'wxloadtime'
p11
S'1493217012'
p12
sS'wxsid'
p13
S'3K8ec75IvmyhY5lB'
>>>>>>> 2096059369bd2f711f1490b707324a39314e76ac
p14
sS'mm_lang'
p15
S'zh_CN'
p16
ssS'version'
p17
S'1.3.5'
p18
sS'storage'
p19
(dp20
S'userName'
p21
<<<<<<< HEAD
V@70c62e4ea98d5632e607711e6b23810c11d4788f505e96ab7af7393e2548bfe6
=======
V@1134e25242d154f0a0bb4424ee9064d37cd48f41946b7bdd63378c8cb6137e8a
>>>>>>> 2096059369bd2f711f1490b707324a39314e76ac
p22
sS'lastInputUserName'
p23
NsS'memberList'
p24
ccopy_reg
_reconstructor
p25
(citchat.storage.templates
ContactList
p26
c__builtin__
list
p27
(lp28
g25
(citchat.storage.templates
User
p29
c__builtin__
dict
p30
(dp31
S'UserName'
p32
g22
sS'City'
p33
S''
p34
sS'DisplayName'
p35
g34
sS'UniFriend'
p36
I0
sS'OwnerUin'
p37
I0
sS'MemberList'
p38
g25
(g26
g27
(lp39
tp40
Rp41
I1
bsS'PYQuanPin'
p42
V
p43
sS'RemarkPYInitial'
p44
g43
sS'Uin'
p45
L3496066292L
sS'AppAccountFlag'
p46
I0
sS'VerifyFlag'
p47
I0
sS'Province'
p48
g34
sS'KeyWord'
p49
g34
sS'RemarkName'
p50
g43
sS'PYInitial'
p51
g43
sS'ChatRoomId'
p52
I0
sS'HideInputBarFlag'
p53
I0
sVHeadImgFlag
p54
I1
sS'EncryChatRoomId'
p55
g34
sS'AttrStatus'
p56
I0
sS'SnsFlag'
p57
I1
sS'MemberCount'
p58
I0
sVWebWxPluginSwitch
p59
I0
sS'Alias'
p60
g34
sS'Signature'
p61
g43
sS'ContactFlag'
p62
I0
sS'NickName'
p63
V\u5c0f\u5b89
p64
sS'RemarkPYQuanPin'
p65
g43
sS'HeadImgUrl'
p66
<<<<<<< HEAD
V/cgi-bin/mmwebwx-bin/webwxgeticon?seq=1930572200&username=@70c62e4ea98d5632e607711e6b23810c11d4788f505e96ab7af7393e2548bfe6&skey=@crypt_5c45189f_388bfb603ca12116af770da8d093f3fe
=======
V/cgi-bin/mmwebwx-bin/webwxgeticon?seq=1766201275&username=@1134e25242d154f0a0bb4424ee9064d37cd48f41946b7bdd63378c8cb6137e8a&skey=@crypt_5c45189f_ac6e30c16a40cb55ad9023bcefd4d4fd
>>>>>>> 2096059369bd2f711f1490b707324a39314e76ac
p67
sS'Sex'
p68
I1
sS'StarFriend'
p69
I0
sS'Statues'
p70
I0
stp71
Rp72
I1
bag25
(g29
g30
(dp73
VUserName
p74
<<<<<<< HEAD
V@c6068fca824c74a6f5374ef59fbc29c8
=======
V@81e3c82463fdf06313915c992f13d5d4
>>>>>>> 2096059369bd2f711f1490b707324a39314e76ac
p75
sVCity
p76
V\u6606\u660e
p77
sVSnsFlag
p78
I17
sVDisplayName
p79
g43
sVUniFriend
p80
I0
sVMemberCount
p81
I0
sVOwnerUin
p82
I0
sVMemberList
p83
g41
sVAlias
p84
Vzongan1991
p85
sVPYQuanPin
p86
Vzongan
p87
sVSignature
p88
g43
sVRemarkPYInitial
p89
g43
sVContactFlag
p90
I3
sVUin
p91
I0
sVNickName
p92
V\u5b97\u5b89
p93
sVAppAccountFlag
p94
I0
sVVerifyFlag
p95
I0
sVRemarkPYQuanPin
p96
g43
sVHeadImgUrl
p97
<<<<<<< HEAD
V/cgi-bin/mmwebwx-bin/webwxgeticon?seq=611350015&username=@c6068fca824c74a6f5374ef59fbc29c8&skey=@crypt_5c45189f_388bfb603ca12116af770da8d093f3fe
=======
V/cgi-bin/mmwebwx-bin/webwxgeticon?seq=611350015&username=@81e3c82463fdf06313915c992f13d5d4&skey=@crypt_5c45189f_ac6e30c16a40cb55ad9023bcefd4d4fd
>>>>>>> 2096059369bd2f711f1490b707324a39314e76ac
p98
sVKeyWord
p99
Vsiw
p100
sVProvince
p101
V\u4e91\u5357
p102
sVPYInitial
p103
VZA
p104
sVRemarkName
p105
g43
sVIsOwner
p106
I0
sVSex
p107
I1
sVStarFriend
p108
I0
sVHideInputBarFlag
p109
I0
sVChatRoomId
p110
I0
sVEncryChatRoomId
p111
g43
sVAttrStatus
p112
I127095
sVStatues
p113
I0
stp114
Rp115
I1
bag25
(g29
g30
(dp116
VUserName
p117
<<<<<<< HEAD
V@1d728378cb1ed61792ccb1abf2a567a66492e2fd60d80dba745913455135da58
=======
V@290dbc5d652e5f8c47aab473393a61628a6cd335309cc3e76e105620e15c850d
>>>>>>> 2096059369bd2f711f1490b707324a39314e76ac
p118
sVCity
p119
g43
sVSnsFlag
p120
I16
sVDisplayName
p121
g43
sVUniFriend
p122
I0
sVMemberCount
p123
I0
sVOwnerUin
p124
I0
sVMemberList
p125
g41
sVAlias
p126
Vzfj13769748753
p127
sVPYQuanPin
p128
Vzongfajun
p129
sVSignature
p130
g43
sVRemarkPYInitial
p131
g43
sVContactFlag
p132
I3
sVUin
p133
I0
sVNickName
p134
V\u5b97\u53d1\u519b
p135
sVAppAccountFlag
p136
I0
sVVerifyFlag
p137
I0
sVRemarkPYQuanPin
p138
g43
sVHeadImgUrl
p139
<<<<<<< HEAD
V/cgi-bin/mmwebwx-bin/webwxgeticon?seq=610250005&username=@1d728378cb1ed61792ccb1abf2a567a66492e2fd60d80dba745913455135da58&skey=@crypt_5c45189f_388bfb603ca12116af770da8d093f3fe
=======
V/cgi-bin/mmwebwx-bin/webwxgeticon?seq=610250005&username=@290dbc5d652e5f8c47aab473393a61628a6cd335309cc3e76e105620e15c850d&skey=@crypt_5c45189f_ac6e30c16a40cb55ad9023bcefd4d4fd
>>>>>>> 2096059369bd2f711f1490b707324a39314e76ac
p140
sVKeyWord
p141
g43
sVProvince
p142
g43
sVPYInitial
p143
VZFJ
p144
sVRemarkName
p145
g43
sVIsOwner
p146
I0
sVSex
p147
I0
sVStarFriend
p148
I0
sVHideInputBarFlag
p149
I0
sVChatRoomId
p150
I0
sVEncryChatRoomId
p151
g43
sVAttrStatus
p152
I4133
sVStatues
p153
I0
stp154
Rp155
I1
bag25
(g29
g30
(dp156
VUserName
p157
<<<<<<< HEAD
V@308598104eb45429d8735c91c35027334f7362e2fed61aa1aef7cc6d0c7b817e
=======
V@ee75a60cade404facceab3768868b7eb3566239f8441cb1756aa9d8d62a18128
>>>>>>> 2096059369bd2f711f1490b707324a39314e76ac
p158
sVCity
p159
g43
sVSnsFlag
p160
I17
sVDisplayName
p161
g43
sVUniFriend
p162
I0
sVMemberCount
p163
I0
sVOwnerUin
p164
I0
sVMemberList
p165
g41
sVAlias
p166
g43
sVPYQuanPin
p167
Vniannian
p168
sVSignature
p169
g43
sVRemarkPYInitial
p170
g43
sVContactFlag
p171
I3
sVUin
p172
I0
sVNickName
p173
V\u5e74\u5e74
p174
sVAppAccountFlag
p175
I0
sVVerifyFlag
p176
I0
sVRemarkPYQuanPin
p177
g43
sVHeadImgUrl
p178
<<<<<<< HEAD
V/cgi-bin/mmwebwx-bin/webwxgeticon?seq=612140030&username=@308598104eb45429d8735c91c35027334f7362e2fed61aa1aef7cc6d0c7b817e&skey=@crypt_5c45189f_388bfb603ca12116af770da8d093f3fe
=======
V/cgi-bin/mmwebwx-bin/webwxgeticon?seq=612140030&username=@ee75a60cade404facceab3768868b7eb3566239f8441cb1756aa9d8d62a18128&skey=@crypt_5c45189f_ac6e30c16a40cb55ad9023bcefd4d4fd
>>>>>>> 2096059369bd2f711f1490b707324a39314e76ac
p179
sVKeyWord
p180
g43
sVProvince
p181
VWicklow
p182
sVPYInitial
p183
VNN
p184
sVRemarkName
p185
g43
sVIsOwner
p186
I0
sVSex
p187
I2
sVStarFriend
p188
I0
sVHideInputBarFlag
p189
I0
sVChatRoomId
p190
I0
sVEncryChatRoomId
p191
g43
sVAttrStatus
p192
I233509
sVStatues
p193
I0
stp194
Rp195
I1
bag25
(g29
g30
(dp196
VUserName
p197
<<<<<<< HEAD
V@0b39a3f5648cbc2cd84722cd33822a18f145273f10060782b6cfaadd8f23b6fe
=======
V@fca89dd535d2a21455982af9bd8b0e689e56d52110ef8d7818bdd3a5658e4a0f
>>>>>>> 2096059369bd2f711f1490b707324a39314e76ac
p198
sVCity
p199
V\u6606\u660e
p200
sVSnsFlag
p201
I17
sVDisplayName
p202
g43
sVUniFriend
p203
I0
sVMemberCount
p204
I0
sVOwnerUin
p205
I0
sVMemberList
p206
g41
sVAlias
p207
Vzhanglj1211
p208
sVPYQuanPin
p209
Vzhuimeng
p210
sVSignature
p211
g43
sVRemarkPYInitial
p212
g43
sVContactFlag
p213
I3
sVUin
p214
I0
sVNickName
p215
V\u8ffd\u68a6
p216
sVAppAccountFlag
p217
I0
sVVerifyFlag
p218
I0
sVRemarkPYQuanPin
p219
g43
sVHeadImgUrl
p220
<<<<<<< HEAD
V/cgi-bin/mmwebwx-bin/webwxgeticon?seq=614850104&username=@0b39a3f5648cbc2cd84722cd33822a18f145273f10060782b6cfaadd8f23b6fe&skey=@crypt_5c45189f_388bfb603ca12116af770da8d093f3fe
=======
V/cgi-bin/mmwebwx-bin/webwxgeticon?seq=614850104&username=@fca89dd535d2a21455982af9bd8b0e689e56d52110ef8d7818bdd3a5658e4a0f&skey=@crypt_5c45189f_ac6e30c16a40cb55ad9023bcefd4d4fd
>>>>>>> 2096059369bd2f711f1490b707324a39314e76ac
p221
sVKeyWord
p222
g43
sVProvince
p223
V\u4e91\u5357
p224
sVPYInitial
p225
VZM
p226
sVRemarkName
p227
g43
sVIsOwner
p228
I0
sVSex
p229
I1
sVStarFriend
p230
I0
sVHideInputBarFlag
p231
I0
sVChatRoomId
p232
I0
sVEncryChatRoomId
p233
g43
sVAttrStatus
p234
I167973
sVStatues
p235
I0
stp236
Rp237
I1
bag25
(g29
g30
(dp238
VUserName
p239
<<<<<<< HEAD
V@dc0d19f86ee2f45b007538a791767a9b
=======
V@382c36b35bd0007a61cdd169ad00e88b
>>>>>>> 2096059369bd2f711f1490b707324a39314e76ac
p240
sVCity
p241
V\u66f2\u9756
p242
sVSnsFlag
p243
I17
sVDisplayName
p244
g43
sVUniFriend
p245
I0
sVMemberCount
p246
I0
sVOwnerUin
p247
I0
sVMemberList
p248
g41
sVAlias
p249
g43
sVPYQuanPin
p250
Vzonglingxian
p251
sVSignature
p252
V\u7ea2\u989c\u6613\u788e\u4e0d\u5982\u626e\u94dc\u5899\u94c1\u58c1
p253
sVRemarkPYInitial
p254
g43
sVContactFlag
p255
I3
sVUin
p256
I0
sVNickName
p257
V\u5b97\u73b2\u4ed9
p258
sVAppAccountFlag
p259
I0
sVVerifyFlag
p260
I0
sVRemarkPYQuanPin
p261
g43
sVHeadImgUrl
p262
<<<<<<< HEAD
V/cgi-bin/mmwebwx-bin/webwxgeticon?seq=617220003&username=@dc0d19f86ee2f45b007538a791767a9b&skey=@crypt_5c45189f_388bfb603ca12116af770da8d093f3fe
=======
V/cgi-bin/mmwebwx-bin/webwxgeticon?seq=617220003&username=@382c36b35bd0007a61cdd169ad00e88b&skey=@crypt_5c45189f_ac6e30c16a40cb55ad9023bcefd4d4fd
>>>>>>> 2096059369bd2f711f1490b707324a39314e76ac
p263
sVKeyWord
p264
Vzon
p265
sVProvince
p266
V\u4e91\u5357
p267
sVPYInitial
p268
VZLX
p269
sVRemarkName
p270
g43
sVIsOwner
p271
I0
sVSex
p272
I2
sVStarFriend
p273
I0
sVHideInputBarFlag
p274
I0
sVChatRoomId
p275
I0
sVEncryChatRoomId
p276
g43
sVAttrStatus
p277
I1127
sVStatues
p278
I0
stp279
Rp280
I1
bag25
(g29
g30
(dp281
VUserName
p282
<<<<<<< HEAD
V@4f69e59a0a82ff4854da7ee6ba6630a9
=======
V@de66443278ff78fd27d97a404de6f820
>>>>>>> 2096059369bd2f711f1490b707324a39314e76ac
p283
sVCity
p284
V\u6606\u660e
p285
sVSnsFlag
p286
I17
sVDisplayName
p287
g43
sVUniFriend
p288
I0
sVMemberCount
p289
I0
sVOwnerUin
p290
I0
sVMemberList
p291
g41
sVAlias
p292
g43
sVPYQuanPin
p293
Vtangrongbin
p294
sVSignature
p295
Vlove is a touch and yet not a touch.
p296
sVRemarkPYInitial
p297
g43
sVContactFlag
p298
I3
sVUin
p299
I0
sVNickName
p300
V\u5510\u8363\u658c
p301
sVAppAccountFlag
p302
I0
sVVerifyFlag
p303
I0
sVRemarkPYQuanPin
p304
g43
sVHeadImgUrl
p305
<<<<<<< HEAD
V/cgi-bin/mmwebwx-bin/webwxgeticon?seq=619730260&username=@4f69e59a0a82ff4854da7ee6ba6630a9&skey=@crypt_5c45189f_388bfb603ca12116af770da8d093f3fe
=======
V/cgi-bin/mmwebwx-bin/webwxgeticon?seq=619730260&username=@de66443278ff78fd27d97a404de6f820&skey=@crypt_5c45189f_ac6e30c16a40cb55ad9023bcefd4d4fd
>>>>>>> 2096059369bd2f711f1490b707324a39314e76ac
p306
sVKeyWord
p307
Vtrb
p308
sVProvince
p309
V\u4e91\u5357
p310
sVPYInitial
p311
VTRB
p312
sVRemarkName
p313
g43
sVIsOwner
p314
I0
sVSex
p315
I1
sVStarFriend
p316
I0
sVHideInputBarFlag
p317
I0
sVChatRoomId
p318
I0
sVEncryChatRoomId
p319
g43
sVAttrStatus
p320
I33784231
sVStatues
p321
I0
stp322
Rp323
I1
bag25
(g29
g30
(dp324
VUserName
p325
<<<<<<< HEAD
V@d836475026ec29e11709220bca61e7a3f9218fbb8fb814b1f0617ea8dc3132af
=======
V@5ff3ca5d19ca8d8a218bec81477d962bc2a5a39577359944f74147b39880600f
>>>>>>> 2096059369bd2f711f1490b707324a39314e76ac
p326
sVCity
p327
V\u66f2\u9756
p328
sVSnsFlag
p329
I17
sVDisplayName
p330
g43
sVUniFriend
p331
I0
sVMemberCount
p332
I0
sVOwnerUin
p333
I0
sVMemberList
p334
g41
sVAlias
p335
VP_Dreame_Q
p336
sVPYQuanPin
p337
VSunshine
p338
sVSignature
p339
V\u52ff\u671f\u671b\uff0c\u4e0d\u5931\u671b
p340
sVRemarkPYInitial
p341
g43
sVContactFlag
p342
I1
sVUin
p343
I0
sVNickName
p344
VSunshine
p345
sVAppAccountFlag
p346
I0
sVVerifyFlag
p347
I0
sVRemarkPYQuanPin
p348
g43
sVHeadImgUrl
p349
<<<<<<< HEAD
V/cgi-bin/mmwebwx-bin/webwxgeticon?seq=623473977&username=@d836475026ec29e11709220bca61e7a3f9218fbb8fb814b1f0617ea8dc3132af&skey=@crypt_5c45189f_388bfb603ca12116af770da8d093f3fe
=======
V/cgi-bin/mmwebwx-bin/webwxgeticon?seq=623473977&username=@5ff3ca5d19ca8d8a218bec81477d962bc2a5a39577359944f74147b39880600f&skey=@crypt_5c45189f_ac6e30c16a40cb55ad9023bcefd4d4fd
>>>>>>> 2096059369bd2f711f1490b707324a39314e76ac
p350
sVKeyWord
p351
g43
sVProvince
p352
V\u4e91\u5357
p353
sVPYInitial
p354
VSUNSHINE
p355
sVRemarkName
p356
g43
sVIsOwner
p357
I0
sVSex
p358
I2
sVStarFriend
p359
I0
sVHideInputBarFlag
p360
I0
sVChatRoomId
p361
I0
sVEncryChatRoomId
p362
g43
sVAttrStatus
p363
I33656957
sVStatues
p364
I0
stp365
Rp366
I1
bag25
(g29
g30
(dp367
VUserName
p368
<<<<<<< HEAD
V@7cdc192f4e1ba6ee17cca54274eac974195199270183132dfb737f0aeb7324e8
=======
V@ec23ff68838888ff5107362fd3ce516f568b1f9cf5a80cbe8cabd8a76cdf33fb
>>>>>>> 2096059369bd2f711f1490b707324a39314e76ac
p369
sVCity
p370
V\u66f2\u9756
p371
sVSnsFlag
p372
I1
sVDisplayName
p373
g43
sVUniFriend
p374
I0
sVMemberCount
p375
I0
sVOwnerUin
p376
I0
sVMemberList
p377
g41
sVAlias
p378
Vzong159049
p379
sVPYQuanPin
p380
Vzxiaoxue
p381
sVSignature
p382
V\u5fc3\u5982\u6b62\u6c34
p383
sVRemarkPYInitial
p384
g43
sVContactFlag
p385
I3
sVUin
p386
I0
sVNickName
p387
Vz\u5c0f\u5b66
p388
sVAppAccountFlag
p389
I0
sVVerifyFlag
p390
I0
sVRemarkPYQuanPin
p391
g43
sVHeadImgUrl
p392
<<<<<<< HEAD
V/cgi-bin/mmwebwx-bin/webwxgeticon?seq=623470052&username=@7cdc192f4e1ba6ee17cca54274eac974195199270183132dfb737f0aeb7324e8&skey=@crypt_5c45189f_388bfb603ca12116af770da8d093f3fe
=======
V/cgi-bin/mmwebwx-bin/webwxgeticon?seq=623470052&username=@ec23ff68838888ff5107362fd3ce516f568b1f9cf5a80cbe8cabd8a76cdf33fb&skey=@crypt_5c45189f_ac6e30c16a40cb55ad9023bcefd4d4fd
>>>>>>> 2096059369bd2f711f1490b707324a39314e76ac
p393
sVKeyWord
p394
g43
sVProvince
p395
V\u4e91\u5357
p396
sVPYInitial
p397
VZXX
p398
sVRemarkName
p399
g43
sVIsOwner
p400
I0
sVSex
p401
I1
sVStarFriend
p402
I0
sVHideInputBarFlag
p403
I0
sVChatRoomId
p404
I0
sVEncryChatRoomId
p405
g43
sVAttrStatus
p406
I4133
sVStatues
p407
I0
stp408
Rp409
I1
bag25
(g29
g30
(dp410
VUserName
p411
<<<<<<< HEAD
V@94ac487bbb9316d7b7c71a258c4722e8de477cd3d25e51d6b64f3c956008a8d6
=======
V@ffa29d475e647d9436b91da245864e4559f4c54b702bfb65e6164f2dd51c3b15
>>>>>>> 2096059369bd2f711f1490b707324a39314e76ac
p412
sVCity
p413
V\u6606\u660e
p414
sVSnsFlag
p415
I17
sVDisplayName
p416
g43
sVUniFriend
p417
I0
sVMemberCount
p418
I0
sVOwnerUin
p419
I0
sVMemberList
p420
g41
sVAlias
p421
Vlqz13769133408
p422
sVPYQuanPin
p423
Vlongqiongzhangchengchanglonghuahui
p424
sVSignature
p425
V\u4ee5\u82b1\u4e3a\u5a92\uff0c\u4ea4\u5929\u4e0b\u670b\u53cb\u000a\u7ec4\u4e0a\u7b49\u82b1\uff0c\u8bda\u5bf9\u65b0\u8001\u5ba2\u6237\u000a\u6c42\u7f18\u5206\uff0c\u751f\u610f\u5e38\u5728
p426
sVRemarkPYInitial
p427
g43
sVContactFlag
p428
I65539
sVUin
p429
I0
sVNickName
p430
V\u9f99\u743c\u7ae0 (\u665f\u660c\u9f99\u82b1\u5349)
p431
sVAppAccountFlag
p432
I0
sVVerifyFlag
p433
I0
sVRemarkPYQuanPin
p434
g43
sVHeadImgUrl
p435
<<<<<<< HEAD
V/cgi-bin/mmwebwx-bin/webwxgeticon?seq=614850054&username=@94ac487bbb9316d7b7c71a258c4722e8de477cd3d25e51d6b64f3c956008a8d6&skey=@crypt_5c45189f_388bfb603ca12116af770da8d093f3fe
=======
V/cgi-bin/mmwebwx-bin/webwxgeticon?seq=614850054&username=@ffa29d475e647d9436b91da245864e4559f4c54b702bfb65e6164f2dd51c3b15&skey=@crypt_5c45189f_ac6e30c16a40cb55ad9023bcefd4d4fd
>>>>>>> 2096059369bd2f711f1490b707324a39314e76ac
p436
sVKeyWord
p437
g43
sVProvince
p438
V\u4e91\u5357
p439
sVPYInitial
p440
VLQZCCLHH
p441
sVRemarkName
p442
g43
sVIsOwner
p443
I0
sVSex
p444
I1
sVStarFriend
p445
I0
sVHideInputBarFlag
p446
I0
sVChatRoomId
p447
I0
sVEncryChatRoomId
p448
g43
sVAttrStatus
p449
I135205
sVStatues
p450
I0
stp451
Rp452
I1
bag25
(g29
g30
(dp453
VUserName
p454
<<<<<<< HEAD
V@56f291e9f98850b08e5f8ccdddbd9f20f0fd503ebd16e3b6a2cd59a3a88122a0
=======
V@ba72aeaa85c893b74f7a463f948bcd7b26766c91fa82506a07c0e6846323db15
>>>>>>> 2096059369bd2f711f1490b707324a39314e76ac
p455
sVCity
p456
g43
sVSnsFlag
p457
I17
sVDisplayName
p458
g43
sVUniFriend
p459
I0
sVMemberCount
p460
I0
sVOwnerUin
p461
I0
sVMemberList
p462
g41
sVAlias
p463
Vxiagxiag666222888999
p464
sVPYQuanPin
p465
Vfoyuan
p466
sVSignature
p467
g43
sVRemarkPYInitial
p468
g43
sVContactFlag
p469
I65539
sVUin
p470
I0
sVNickName
p471
V\u4f5b\u7f18
p472
sVAppAccountFlag
p473
I0
sVVerifyFlag
p474
I0
sVRemarkPYQuanPin
p475
g43
sVHeadImgUrl
p476
<<<<<<< HEAD
V/cgi-bin/mmwebwx-bin/webwxgeticon?seq=619730491&username=@56f291e9f98850b08e5f8ccdddbd9f20f0fd503ebd16e3b6a2cd59a3a88122a0&skey=@crypt_5c45189f_388bfb603ca12116af770da8d093f3fe
=======
V/cgi-bin/mmwebwx-bin/webwxgeticon?seq=619730491&username=@ba72aeaa85c893b74f7a463f948bcd7b26766c91fa82506a07c0e6846323db15&skey=@crypt_5c45189f_ac6e30c16a40cb55ad9023bcefd4d4fd
>>>>>>> 2096059369bd2f711f1490b707324a39314e76ac
p477
sVKeyWord
p478
g43
sVProvince
p479
g43
sVPYInitial
p480
VFY
p481
sVRemarkName
p482
g43
sVIsOwner
p483
I0
sVSex
p484
I1
sVStarFriend
p485
I0
sVHideInputBarFlag
p486
I0
sVChatRoomId
p487
I0
sVEncryChatRoomId
p488
g43
sVAttrStatus
p489
I4261
sVStatues
p490
I0
stp491
Rp492
I1
bag25
(g29
g30
(dp493
VUserName
p494
<<<<<<< HEAD
V@4e749cae27979d22b4645d6f67ba6d2ae5e3867a583cb4c7ea42010737c8ab03
=======
V@d268d3b03dd38663a4224645482407f55ffbd711c75c8119c53c55e9afcf38ec
>>>>>>> 2096059369bd2f711f1490b707324a39314e76ac
p495
sVCity
p496
V\u66f2\u9756
p497
sVSnsFlag
p498
I17
sVDisplayName
p499
g43
sVUniFriend
p500
I0
sVMemberCount
p501
I0
sVOwnerUin
p502
I0
sVMemberList
p503
g41
sVAlias
p504
VLyyl_Wowo48
p505
sVPYQuanPin
p506
Vheidebaidehuidespanclassemojiemoji1f340span
p507
sVSignature
p508
V\u82b1\u5e97\u5173\u4e86\uff0c\u82b1\u5f00\u4e86\u3002
p509
sVRemarkPYInitial
p510
g43
sVContactFlag
p511
I1
sVUin
p512
I0
sVNickName
p513
V\u9ed1\u7684\u767d\u7684\u7070\u7684\U0001f340
p514
sVAppAccountFlag
p515
I0
sVVerifyFlag
p516
I0
sVRemarkPYQuanPin
p517
g43
sVHeadImgUrl
p518
<<<<<<< HEAD
V/cgi-bin/mmwebwx-bin/webwxgeticon?seq=623474666&username=@4e749cae27979d22b4645d6f67ba6d2ae5e3867a583cb4c7ea42010737c8ab03&skey=@crypt_5c45189f_388bfb603ca12116af770da8d093f3fe
=======
V/cgi-bin/mmwebwx-bin/webwxgeticon?seq=623474666&username=@d268d3b03dd38663a4224645482407f55ffbd711c75c8119c53c55e9afcf38ec&skey=@crypt_5c45189f_ac6e30c16a40cb55ad9023bcefd4d4fd
>>>>>>> 2096059369bd2f711f1490b707324a39314e76ac
p519
sVKeyWord
p520
g43
sVProvince
p521
V\u4e91\u5357
p522
sVPYInitial
p523
VHDBDHDSPANCLASSEMOJIEMOJI1F340SPAN
p524
sVRemarkName
p525
g43
sVIsOwner
p526
I0
sVSex
p527
I2
sVStarFriend
p528
I0
sVHideInputBarFlag
p529
I0
sVChatRoomId
p530
I0
sVEncryChatRoomId
p531
g43
sVAttrStatus
p532
I16897063
sVStatues
p533
I0
stp534
Rp535
I1
bag25
(g29
g30
(dp536
VUserName
p537
<<<<<<< HEAD
V@e486ce5bbc845f44fd9da985d0952cb2
=======
V@cd89cc1e62437b6a328d3db576f04484
>>>>>>> 2096059369bd2f711f1490b707324a39314e76ac
p538
sVCity
p539
V\u6606\u660e
p540
sVSnsFlag
p541
I17
sVDisplayName
p542
g43
sVUniFriend
p543
I0
sVMemberCount
p544
I0
sVOwnerUin
p545
I0
sVMemberList
p546
g41
sVAlias
p547
Vlittle-rainning
p548
sVPYQuanPin
p549
Vguyue
p550
sVSignature
p551
V<span class="emoji emoji1f343"></span>\u65e5\u5b50\u5c31\u8981\u50cf\u82b1\u513f\u90a3\u822c\u707f\u70c2<span class="emoji emoji1f338"></span><span class="emoji emoji1f33b"></span>
p552
sVRemarkPYInitial
p553
g43
sVContactFlag
p554
I1
sVUin
p555
I0
sVNickName
p556
V\u53e4\u6708
p557
sVAppAccountFlag
p558
I0
sVVerifyFlag
p559
I0
sVRemarkPYQuanPin
p560
g43
sVHeadImgUrl
p561
<<<<<<< HEAD
V/cgi-bin/mmwebwx-bin/webwxgeticon?seq=623474709&username=@e486ce5bbc845f44fd9da985d0952cb2&skey=@crypt_5c45189f_388bfb603ca12116af770da8d093f3fe
=======
V/cgi-bin/mmwebwx-bin/webwxgeticon?seq=623474709&username=@cd89cc1e62437b6a328d3db576f04484&skey=@crypt_5c45189f_ac6e30c16a40cb55ad9023bcefd4d4fd
>>>>>>> 2096059369bd2f711f1490b707324a39314e76ac
p562
sVKeyWord
p563
Vhux
p564
sVProvince
p565
V\u4e91\u5357
p566
sVPYInitial
p567
VGY
p568
sVRemarkName
p569
g43
sVIsOwner
p570
I0
sVSex
p571
I2
sVStarFriend
p572
I0
sVHideInputBarFlag
p573
I0
sVChatRoomId
p574
I0
sVEncryChatRoomId
p575
g43
sVAttrStatus
p576
I16881893
sVStatues
p577
I0
stp578
Rp579
I1
bag25
(g29
g30
(dp580
VUserName
p581
<<<<<<< HEAD
V@939cf38ea00fa11645cfb3c5df129e08
=======
V@8cb765d83c229584a32d0f2c315279dd
>>>>>>> 2096059369bd2f711f1490b707324a39314e76ac
p582
sVCity
p583
V\u6606\u660e
p584
sVSnsFlag
p585
I17
sVDisplayName
p586
g43
sVUniFriend
p587
I0
sVMemberCount
p588
I0
sVOwnerUin
p589
I0
sVMemberList
p590
g41
sVAlias
p591
VBABOkey
p592
sVPYQuanPin
p593
VAAtouyingjibingmuyinxiang18788497301bai
p594
sVSignature
p595
V\u6295\u5f71\u673a\u3001\u5c4f\u5e55\u3001\u97f3\u54cd2017\u73b0\u8d27\u6279\u53d1\uff01\u79d2\u53d1\uff01\u79d2\u9001\uff01\u7968\u88d518788497301
p596
sVRemarkPYInitial
p597
g43
sVContactFlag
p598
I65539
sVUin
p599
I0
sVNickName
p600
VAA\u6295\u5f71\u673a\u5c4f\u5e55\u97f3\u54cd18788497301\u767d
p601
sVAppAccountFlag
p602
I0
sVVerifyFlag
p603
I0
sVRemarkPYQuanPin
p604
g43
sVHeadImgUrl
p605
<<<<<<< HEAD
V/cgi-bin/mmwebwx-bin/webwxgeticon?seq=623474715&username=@939cf38ea00fa11645cfb3c5df129e08&skey=@crypt_5c45189f_388bfb603ca12116af770da8d093f3fe
=======
V/cgi-bin/mmwebwx-bin/webwxgeticon?seq=623474715&username=@8cb765d83c229584a32d0f2c315279dd&skey=@crypt_5c45189f_ac6e30c16a40cb55ad9023bcefd4d4fd
>>>>>>> 2096059369bd2f711f1490b707324a39314e76ac
p606
sVKeyWord
p607
Vbai
p608
sVProvince
p609
V\u4e91\u5357
p610
sVPYInitial
p611
VAATYJBMYX18788497301B
p612
sVRemarkName
p613
g43
sVIsOwner
p614
I0
sVSex
p615
I1
sVStarFriend
p616
I0
sVHideInputBarFlag
p617
I0
sVChatRoomId
p618
I0
sVEncryChatRoomId
p619
g43
sVAttrStatus
p620
L2151780453L
sVStatues
p621
I0
stp622
Rp623
I1
bag25
(g29
g30
(dp624
VUserName
p625
<<<<<<< HEAD
V@017a9d1c127349208d10d719f0bc29a7
=======
V@d5fc5f1cdf17776abc521d1b6fac6f5c
>>>>>>> 2096059369bd2f711f1490b707324a39314e76ac
p626
sVCity
p627
g43
sVSnsFlag
p628
I49
sVDisplayName
p629
g43
sVUniFriend
p630
I0
sVMemberCount
p631
I0
sVOwnerUin
p632
I0
sVMemberList
p633
g41
sVAlias
p634
Vcolorcoco
p635
sVPYQuanPin
p636
Vyushushu
p637
sVSignature
p638
g43
sVRemarkPYInitial
p639
g43
sVContactFlag
p640
I3
sVUin
p641
I0
sVNickName
p642
V\u7389\u8700\u9ecd
p643
sVAppAccountFlag
p644
I0
sVVerifyFlag
p645
I0
sVRemarkPYQuanPin
p646
g43
sVHeadImgUrl
p647
<<<<<<< HEAD
V/cgi-bin/mmwebwx-bin/webwxgeticon?seq=623474677&username=@017a9d1c127349208d10d719f0bc29a7&skey=@crypt_5c45189f_388bfb603ca12116af770da8d093f3fe
=======
V/cgi-bin/mmwebwx-bin/webwxgeticon?seq=623474677&username=@d5fc5f1cdf17776abc521d1b6fac6f5c&skey=@crypt_5c45189f_ac6e30c16a40cb55ad9023bcefd4d4fd
>>>>>>> 2096059369bd2f711f1490b707324a39314e76ac
p648
sVKeyWord
p649
Vyup
p650
sVProvince
p651
g43
sVPYInitial
p652
VYSS
p653
sVRemarkName
p654
g43
sVIsOwner
p655
I0
sVSex
p656
I2
sVStarFriend
p657
I0
sVHideInputBarFlag
p658
I0
sVChatRoomId
p659
I0
sVEncryChatRoomId
p660
g43
sVAttrStatus
p661
I83173
sVStatues
p662
I0
stp663
Rp664
I1
bag25
(g29
g30
(dp665
VUserName
p666
<<<<<<< HEAD
V@ed0973f4c2e3076e114b75f4c21b7a5531dabf1a7b4145d4e625a855e468042a
=======
V@aa61a8ac866c330193962e24a0b285644ca3eb88c2a840c711df5c58d656785a
>>>>>>> 2096059369bd2f711f1490b707324a39314e76ac
p667
sVCity
p668
V\u6606\u660e
p669
sVSnsFlag
p670
I17
sVDisplayName
p671
g43
sVUniFriend
p672
I0
sVMemberCount
p673
I0
sVOwnerUin
p674
I0
sVMemberList
p675
g41
sVAlias
p676
Vweixinsal001
p677
sVPYQuanPin
p678
VAispanclassemojiemoji1f340span
p679
sVSignature
p680
V<span class="emoji emoji1f33e"></span>
p681
sVRemarkPYInitial
p682
g43
sVContactFlag
p683
I3
sVUin
p684
I0
sVNickName
p685
VAi~\U0001f340
p686
sVAppAccountFlag
p687
I0
sVVerifyFlag
p688
I0
sVRemarkPYQuanPin
p689
g43
sVHeadImgUrl
p690
<<<<<<< HEAD
V/cgi-bin/mmwebwx-bin/webwxgeticon?seq=623474792&username=@ed0973f4c2e3076e114b75f4c21b7a5531dabf1a7b4145d4e625a855e468042a&skey=@crypt_5c45189f_388bfb603ca12116af770da8d093f3fe
=======
V/cgi-bin/mmwebwx-bin/webwxgeticon?seq=623474792&username=@aa61a8ac866c330193962e24a0b285644ca3eb88c2a840c711df5c58d656785a&skey=@crypt_5c45189f_ac6e30c16a40cb55ad9023bcefd4d4fd
>>>>>>> 2096059369bd2f711f1490b707324a39314e76ac
p691
sVKeyWord
p692
g43
sVProvince
p693
V\u4e91\u5357
p694
sVPYInitial
p695
VAISPANCLASSEMOJIEMOJI1F340SPAN
p696
<<<<<<< HEAD
sVRemarkName
p697
g43
sVIsOwner
p698
I0
sVSex
p699
I2
sVStarFriend
p700
I0
sVHideInputBarFlag
p701
I0
sVChatRoomId
p702
I0
sVEncryChatRoomId
p703
g43
sVAttrStatus
p704
I102437
sVStatues
p705
I0
stp706
Rp707
I1
batp708
Rp709
I1
bsS'chatroomList'
p710
g25
(g26
g27
(lp711
g25
(citchat.storage.templates
Chatroom
p712
g30
(dp713
VUserName
p714
V@@315b08c21bf4a08730731ee48f7237f433af6637a014999f6dad38c901d69368
p715
sVCity
p716
g43
sVDisplayName
p717
g43
sVUniFriend
p718
I0
sS'Self'
p719
g25
(g29
g30
(dp720
g32
g22
sg33
g34
sg35
g34
sg36
I0
sg37
I0
sg38
g25
(g26
g27
(lp721
tp722
Rp723
I1
bsg42
g43
sg44
g43
sg45
L3496066292L
sg46
I0
sg47
I0
sg48
g34
sg49
g34
sg50
g43
sg51
g43
sg52
I0
sg53
I0
sg54
I1
sg55
g34
sg56
I0
sg57
I1
sg58
I0
sg59
I0
sg60
g34
sg61
g43
sg62
I0
sg63
g64
sg65
g43
sg66
g67
sg68
I1
sg69
I0
sg70
I0
stp724
Rp725
I1
bsVMemberList
p726
g25
(g26
g27
(lp727
tp728
Rp729
I1
bsVPYQuanPin
p730
g43
sVRemarkPYInitial
p731
g43
sVSex
p732
I0
sVAppAccountFlag
p733
I0
sVVerifyFlag
p734
I0
sVProvince
p735
g43
sVKeyWord
p736
g43
sVRemarkName
p737
g43
sVPYInitial
p738
g43
sVIsOwner
p739
I1
sVChatRoomId
p740
I0
sVHideInputBarFlag
p741
I0
sVEncryChatRoomId
p742
g43
sVAttrStatus
p743
I0
sVSnsFlag
p744
I0
sVMemberCount
p745
I2
sVOwnerUin
p746
I0
sVAlias
p747
g43
sS'IsAdmin'
p748
NsVSignature
p749
g43
sVContactFlag
p750
I0
sVNickName
p751
V\u5c0f\u5b89,\u5b97\u5b89
p752
sVRemarkPYQuanPin
p753
g43
sVHeadImgUrl
p754
V/cgi-bin/mmwebwx-bin/webwxgetheadimg?seq=0&username=@@315b08c21bf4a08730731ee48f7237f433af6637a014999f6dad38c901d69368&skey=@crypt_5c45189f_388bfb603ca12116af770da8d093f3fe
p755
sVUin
p756
I0
sVStarFriend
p757
I0
sVStatues
p758
I1
stp759
Rp760
I1
bag25
(g712
g30
(dp761
VUserName
p762
V@@3b1db4c385d20b41fdbaf1b7257a63b70eab3bdd549b03eeb72ff3850584c799
p763
sVCity
p764
g43
sVDisplayName
p765
g43
sVUniFriend
p766
I0
sg719
g25
(g29
g30
(dp767
g32
g22
sg33
g34
sg35
g34
sg36
I0
sg37
I0
sg38
g25
(g26
g27
(lp768
tp769
Rp770
I1
bsg42
g43
sg44
g43
sg45
L3496066292L
sg46
I0
sg47
I0
sg48
g34
sg49
g34
sg50
g43
sg51
g43
sg52
I0
sg53
I0
sg54
I1
sg55
g34
sg56
I0
sg57
I1
sg58
I0
sg59
I0
sg60
g34
sg61
g43
sg62
I0
sg63
g64
sg65
g43
sg66
g67
sg68
I1
sg69
I0
sg70
I0
stp771
Rp772
I1
bsVMemberList
p773
g25
(g26
g27
(lp774
tp775
Rp776
I1
bsVPYQuanPin
p777
g43
sVRemarkPYInitial
p778
g43
sVSex
p779
I0
sVAppAccountFlag
p780
I0
sVVerifyFlag
p781
I0
sVProvince
p782
g43
sVKeyWord
p783
g43
sVRemarkName
p784
g43
sVPYInitial
p785
g43
sVIsOwner
p786
I0
sVChatRoomId
p787
I0
sVHideInputBarFlag
p788
I0
sVEncryChatRoomId
p789
g43
sVAttrStatus
p790
I0
sVSnsFlag
p791
I0
sVMemberCount
p792
I3
sVOwnerUin
p793
I0
sVAlias
p794
g43
sg748
NsVSignature
p795
g43
sVContactFlag
p796
I0
sVNickName
p797
V\u5b97\u5b89,\u54ce\u5466\u5582,\u5c0f\u5b89
p798
sVRemarkPYQuanPin
p799
g43
sVHeadImgUrl
p800
V/cgi-bin/mmwebwx-bin/webwxgetheadimg?seq=0&username=@@3b1db4c385d20b41fdbaf1b7257a63b70eab3bdd549b03eeb72ff3850584c799&skey=@crypt_5c45189f_388bfb603ca12116af770da8d093f3fe
p801
sVUin
p802
I0
sVStarFriend
p803
I0
sVStatues
p804
I1
stp805
Rp806
I1
batp807
Rp808
I1
bsS'nickName'
p809
g64
sS'mpList'
p810
g25
(g26
g27
(lp811
g25
(citchat.storage.templates
MassivePlatform
p812
g30
(dp813
VUserName
p814
V@b8c6a9cef0f9d8bbcb3d3551acd9392e
p815
sVCity
p816
V\u6d77\u6dc0
p817
sVSnsFlag
p818
I0
sVDisplayName
p819
g43
sVUniFriend
p820
I0
sVMemberCount
p821
I0
sVOwnerUin
p822
I0
sVMemberList
p823
g41
sVAlias
p824
Vautohomeweixin
p825
sVPYQuanPin
p826
Vqichezhijia
p827
sVSignature
p828
V\u60a8\u8eab\u8fb9\u7684\u61c2\u8f66\u5bb6\u4eba\uff0c\u7ed9\u60a8\u5e26\u6765\u4e70\u8f66\u7528\u8f66\u53ca\u8f66\u751f\u6d3b\u7684\u5168\u7a0b\u670d\u52a1\uff0c\u503c\u5f97\u4fe1\u8d56\u7684\u4e92\u8054\u7f51\u6c7d\u8f66\u8425\u9500\u5e73\u53f0\u3002
p829
sVRemarkPYInitial
p830
g43
sVContactFlag
p831
I3
sVUin
p832
I0
sVNickName
p833
V\u6c7d\u8f66\u4e4b\u5bb6
p834
sVAppAccountFlag
p835
I0
sVVerifyFlag
p836
I24
sVRemarkPYQuanPin
p837
g43
sVHeadImgUrl
p838
V/cgi-bin/mmwebwx-bin/webwxgeticon?seq=619730103&username=@b8c6a9cef0f9d8bbcb3d3551acd9392e&skey=@crypt_5c45189f_388bfb603ca12116af770da8d093f3fe
p839
sVKeyWord
p840
Vgh_
p841
sVProvince
p842
V\u5317\u4eac
p843
sVPYInitial
p844
VQCZJ
p845
sVRemarkName
p846
g43
sVIsOwner
p847
I0
sVSex
p848
I0
sVStarFriend
p849
I0
sVHideInputBarFlag
p850
I0
sVChatRoomId
p851
I0
sVEncryChatRoomId
p852
g43
sVAttrStatus
p853
I0
sVStatues
p854
I0
stp855
Rp856
I1
bag25
(g812
g30
(dp857
VUserName
p858
V@888e941c5f5c15e77252db22578d6739
p859
sVCity
p860
V\u6606\u660e
p861
sVSnsFlag
p862
I0
sVDisplayName
p863
g43
sVUniFriend
p864
I0
sVMemberCount
p865
I0
sVOwnerUin
p866
I0
sVMemberList
p867
g41
sVAlias
p868
g43
sVPYQuanPin
p869
Vyunnaheyuzhuangshi
p870
sVSignature
p871
V\u4e3b\u8981\u627f\u63a5\uff1a\u5bb6\u5c45\u3001\u5546\u4e1a\u5e97\u94fa\uff08\u8fde\u9501\u5e97\uff09\u3001\u529e\u516c\u3001\u9152\u5e97\u3001\u522b\u5885\u7b49\u88c5\u9970\u5de5\u7a0b\u65bd\u5de5\uff0c\u751f\u4ea7\u5b9a\u5236\u5404\u7c7b\u5c55\u5385\u5c55\u67dc\u3001\u4e13\u67dc\uff08\u70e4\u6f06\u3001\u73bb\u7483\u3001\u5b9e\u6728\u7b49\u6210\u54c1\u67dc\uff09\uff0c\u516c\u53f8\u4ee5\u8bbe\u8ba1\u4e3a\u6838\u5fc3\u4e0d\u65ad\u5bfb\u6c42\u88c5\u9970\u884c\u4e1a\u7684\u79c1\u5bfc\u6027\u3001\u81ea\u6211\u4e2a\u6027\u98ce\u683c\u521b\u4f5c\u7075\u9b42\u4e3a\u5ba2\u6237\u8bbe\u8ba1\u51fa\u60a8\u7684\u7406\u5ff5\u9700\u6c42\u3002
p872
sVRemarkPYInitial
p873
g43
sVContactFlag
p874
I3
sVUin
p875
I0
sVNickName
p876
V\u4e91\u5357\u9e64\u7389\u88c5\u9970
p877
sVAppAccountFlag
p878
I0
sVVerifyFlag
p879
I8
sVRemarkPYQuanPin
p880
g43
sVHeadImgUrl
p881
V/cgi-bin/mmwebwx-bin/webwxgeticon?seq=606910278&username=@888e941c5f5c15e77252db22578d6739&skey=@crypt_5c45189f_388bfb603ca12116af770da8d093f3fe
p882
sVKeyWord
p883
Vgh_
p884
sVProvince
p885
V\u4e91\u5357
p886
sVPYInitial
p887
VYNHYZS
p888
sVRemarkName
p889
g43
sVIsOwner
p890
I0
sVSex
p891
I0
sVStarFriend
p892
I0
sVHideInputBarFlag
p893
I0
sVChatRoomId
p894
I0
sVEncryChatRoomId
p895
g43
sVAttrStatus
p896
I0
sVStatues
p897
I0
stp898
Rp899
I1
bag25
(g812
g30
(dp900
VUserName
p901
V@cf77e123c7da6a86f335d67922ad457a
p902
sVCity
p903
V\u6606\u660e
p904
sVSnsFlag
p905
I0
sVDisplayName
p906
g43
sVUniFriend
p907
I0
sVMemberCount
p908
I0
sVOwnerUin
p909
I0
sVMemberList
p910
g41
sVAlias
p911
Vdmq100
p912
sVPYQuanPin
p913
Vyunnadumuqiaojiaoyozixunyouxiangongsi
p914
sVSignature
p915
V\u6559\u80b2\u4fe1\u606f\u54a8\u8be2\uff1b\u56fd\u5185\u7248\u4e66\u520a\u7684\u9500\u552e\u3002
p916
sVRemarkPYInitial
p917
g43
sVContactFlag
p918
I3
sVUin
p919
I0
sVNickName
p920
V\u4e91\u5357\u72ec\u6728\u6865\u6559\u80b2\u54a8\u8be2\u6709\u9650\u516c\u53f8
p921
sVAppAccountFlag
p922
I0
sVVerifyFlag
p923
I24
sVRemarkPYQuanPin
p924
g43
sVHeadImgUrl
p925
V/cgi-bin/mmwebwx-bin/webwxgeticon?seq=608360022&username=@cf77e123c7da6a86f335d67922ad457a&skey=@crypt_5c45189f_388bfb603ca12116af770da8d093f3fe
p926
sVKeyWord
p927
Vgh_
p928
sVProvince
p929
V\u4e91\u5357
p930
sVPYInitial
p931
VYNDMQJYZXYXGS
p932
sVRemarkName
p933
g43
sVIsOwner
p934
I0
sVSex
p935
I0
sVStarFriend
p936
I0
sVHideInputBarFlag
p937
I0
sVChatRoomId
p938
I0
sVEncryChatRoomId
p939
g43
sVAttrStatus
p940
I0
sVStatues
p941
I0
stp942
Rp943
I1
bag25
(g812
g30
(dp944
VUserName
p945
V@c81567bbf721a5c5dcbdc3d2ce118a16
p946
sVCity
p947
V\u6606\u660e
p948
sVSnsFlag
p949
I0
sVDisplayName
p950
g43
sVUniFriend
p951
I0
sVMemberCount
p952
I0
sVOwnerUin
p953
I0
sVMemberList
p954
g41
sVAlias
p955
VMr_ZongAn
p956
sVPYQuanPin
p957
VMrZong
p958
sVSignature
p959
VJust Do IT\uff0c\u5f88\u591a\u5b69\u5b50\u542c\u4e86\u4e54\u4e39\u7684\u8bdd\uff0c\u4ece\u6b64\u8fdb\u5165\u4e86IT\u884c\u4e1a\u3002
p960
sVRemarkPYInitial
p961
g43
sVContactFlag
p962
I3
sVUin
p963
I0
sVNickName
p964
VMrZong
p965
sVAppAccountFlag
p966
I0
sVVerifyFlag
p967
I8
sVRemarkPYQuanPin
p968
g43
sVHeadImgUrl
p969
V/cgi-bin/mmwebwx-bin/webwxgeticon?seq=608360071&username=@c81567bbf721a5c5dcbdc3d2ce118a16&skey=@crypt_5c45189f_388bfb603ca12116af770da8d093f3fe
p970
sVKeyWord
p971
Vgh_
p972
sVProvince
p973
V\u4e91\u5357
p974
sVPYInitial
p975
VMRZONG
p976
sVRemarkName
p977
g43
sVIsOwner
p978
I0
sVSex
p979
I0
sVStarFriend
p980
I0
sVHideInputBarFlag
p981
I0
sVChatRoomId
p982
I0
sVEncryChatRoomId
p983
g43
sVAttrStatus
p984
I0
sVStatues
p985
I0
stp986
Rp987
I1
bag25
(g812
g30
(dp988
VUserName
p989
V@3e3d123c60c85bc91472d138b4f53cb5
p990
sVCity
p991
V\u6606\u660e
p992
sVSnsFlag
p993
I0
sVDisplayName
p994
g43
sVUniFriend
p995
I0
sVMemberCount
p996
I0
sVOwnerUin
p997
I0
sVMemberList
p998
g41
sVAlias
p999
g43
sVPYQuanPin
p1000
Vyunnanongjinhuahuiyouxiangongsi
p1001
sVSignature
p1002
V\u56fd\u5185\u8d38\u6613\u3001\u7269\u8d44\u4f9b\u9500\uff0c\u8fdb\u51fa\u53e3\u8d38\u6613\uff0c\u7535\u5b50\u5546\u52a1\uff0c\u82b1\u5349\u7684\u79cd\u690d\u53ca\u9500\u552e\u3002
p1003
sVRemarkPYInitial
p1004
g43
sVContactFlag
p1005
I3
sVUin
p1006
I0
sVNickName
p1007
V\u4e91\u5357\u519c\u9526\u82b1\u5349\u6709\u9650\u516c\u53f8
p1008
sVAppAccountFlag
p1009
I0
sVVerifyFlag
p1010
I24
sVRemarkPYQuanPin
p1011
g43
sVHeadImgUrl
p1012
V/cgi-bin/mmwebwx-bin/webwxgeticon?seq=608360076&username=@3e3d123c60c85bc91472d138b4f53cb5&skey=@crypt_5c45189f_388bfb603ca12116af770da8d093f3fe
p1013
sVKeyWord
p1014
Vgh_
p1015
sVProvince
p1016
V\u4e91\u5357
p1017
sVPYInitial
p1018
VYNNJHHYXGS
p1019
sVRemarkName
p1020
g43
sVIsOwner
p1021
I0
sVSex
p1022
I0
sVStarFriend
p1023
I0
sVHideInputBarFlag
p1024
I0
sVChatRoomId
p1025
I0
sVEncryChatRoomId
p1026
g43
sVAttrStatus
p1027
I0
sVStatues
p1028
I0
stp1029
Rp1030
I1
bag25
(g812
g30
(dp1031
VUserName
p1032
V@88f35be4674537babac7e61355075337
p1033
sVCity
p1034
V\u6606\u660e
p1035
sVSnsFlag
p1036
I0
sVDisplayName
p1037
g43
sVUniFriend
p1038
I0
sVMemberCount
p1039
I0
sVOwnerUin
p1040
I0
sVMemberList
p1041
g41
sVAlias
p1042
g43
sVPYQuanPin
p1043
Vyunnayinruankejiyouxiangongsi
p1044
sVSignature
p1045
V\u4f01\u4e1a\u7f51\u7edc\u54c1\u724c\u5ba3\u4f20\u3001\u7f51\u7edc\u8425\u9500\uff0c\u4f01\u4e1a\u7f51\u7ad9\u8ba2\u5236\u4e0e\u63a8\u5e7f\uff1b\u5fae\u4fe1\u5546\u57ce\u3001\u5fae\u4fe1\u8425\u9500\u3001\u5fae\u4fe1\u516c\u4f17\u5e73\u53f0\uff1bAPP\u5546\u57ce\u53ca\u5176\u4ed6\u8f6f\u4ef6\u5f00\u53d1\uff1b\u4f01\u4e1aCRM\u3001OA\u53caERP\u7cfb\u7edf\u7684\u5f00\u53d1\u4e0e\u642d\u5efa\u7b49\u4e1a\u52a1\u3002
p1046
sVRemarkPYInitial
p1047
g43
sVContactFlag
p1048
I1
sVUin
p1049
I0
sVNickName
p1050
V\u4e91\u5357\u94f6\u8f6f\u79d1\u6280\u6709\u9650\u516c\u53f8
p1051
sVAppAccountFlag
p1052
I0
sVVerifyFlag
p1053
I24
sVRemarkPYQuanPin
p1054
g43
sVHeadImgUrl
p1055
V/cgi-bin/mmwebwx-bin/webwxgeticon?seq=609230006&username=@88f35be4674537babac7e61355075337&skey=@crypt_5c45189f_388bfb603ca12116af770da8d093f3fe
p1056
sVKeyWord
p1057
Vgh_
p1058
sVProvince
p1059
V\u4e91\u5357
p1060
sVPYInitial
p1061
VYNYRKJYXGS
p1062
sVRemarkName
p1063
g43
sVIsOwner
p1064
I0
sVSex
p1065
I0
sVStarFriend
p1066
I0
sVHideInputBarFlag
p1067
I0
sVChatRoomId
p1068
I0
sVEncryChatRoomId
p1069
g43
sVAttrStatus
p1070
I0
sVStatues
p1071
I0
stp1072
Rp1073
I1
bag25
(g812
g30
(dp1074
VUserName
p1075
V@5f147355b765eba73ba200cfbb78d4c0
p1076
sVCity
p1077
V\u6606\u660e
p1078
sVSnsFlag
p1079
I0
sVDisplayName
p1080
g43
sVUniFriend
p1081
I0
sVMemberCount
p1082
I0
sVOwnerUin
p1083
I0
sVMemberList
p1084
g41
sVAlias
p1085
g43
sVPYQuanPin
p1086
Vhongxinghaoyunkuajingwuliupingtai
p1087
sVSignature
p1088
V\u7acb\u8db3\u4e91\u5357\uff0c\u9762\u5411\u4e1c\u5357\u4e9a\uff0c\u8f90\u5c04\u56fd\u5185\u7684\u8de8\u5883\u7269\u6d41\u516c\u4f17\u5e73\u53f0\u3002\u81f4\u529b\u642d\u5efa\u6e44\u516c\u6cb3\u6b21\u533a\u57df\u8de8\u5883\u8d27\u8fd0\u8f66\u8f86\u8fd0\u529b\u6c60\uff0c\u6784\u5efa\u8de8\u5883\u7269\u6d41\u4ea7\u4e1a\u751f\u6001\u5708\u3002\u4e3a\u8f66\u4e3b\u548c\u8d27\u4e3b\u63d0\u4f9b\u76f4\u63a5\u7ebf\u4e0a\u5bf9\u63a5\u7684\u529f\u80fd\uff0c\u53ca\u65f6\u83b7\u53d6\u8d27\u6e90\u53ca\u8f66\u6e90,\u5b8c\u6210\u63a5\u5355\u3001\u8fd0\u8f93\u3001\u6536\u8d27\u3001\u6536\u6b3e\u7b49\u8fc7\u7a0b\u3002
p1089
sVRemarkPYInitial
p1090
g43
sVContactFlag
p1091
I3
sVUin
p1092
I0
sVNickName
p1093
V\u5b8f\u661f\u597d\u8fd0\u8de8\u5883\u7269\u6d41\u5e73\u53f0
p1094
sVAppAccountFlag
p1095
I0
sVVerifyFlag
p1096
I24
sVRemarkPYQuanPin
p1097
g43
sVHeadImgUrl
p1098
V/cgi-bin/mmwebwx-bin/webwxgeticon?seq=623474693&username=@5f147355b765eba73ba200cfbb78d4c0&skey=@crypt_5c45189f_388bfb603ca12116af770da8d093f3fe
p1099
sVKeyWord
p1100
Vgh_
p1101
sVProvince
p1102
V\u4e91\u5357
p1103
sVPYInitial
p1104
VHXHYKJWLPT
p1105
sVRemarkName
p1106
g43
sVIsOwner
p1107
I0
sVSex
p1108
I0
sVStarFriend
p1109
I0
sVHideInputBarFlag
p1110
I0
sVChatRoomId
p1111
I0
sVEncryChatRoomId
p1112
g43
sVAttrStatus
p1113
I0
sVStatues
p1114
I0
stp1115
Rp1116
I1
batp1117
Rp1118
I1
bssS'loginInfo'
p1119
(dp1120
S'SyncKey'
p1121
(dp1122
VCount
p1123
I4
sVList
p1124
(lp1125
(dp1126
VVal
p1127
I623474730
sVKey
p1128
I1
sa(dp1129
VVal
p1130
I623474825
sVKey
p1131
I2
sa(dp1132
VVal
p1133
I623474792
sVKey
p1134
I3
sa(dp1135
VVal
p1136
I1493253001
sVKey
p1137
I1000
sassS'syncUrl'
p1138
S'https://webpush.wx2.qq.com/cgi-bin/mmwebwx-bin'
p1139
sS'skey'
p1140
V@crypt_5c45189f_388bfb603ca12116af770da8d093f3fe
p1141
sS'wxuin'
p1142
V3496066292
p1143
sS'synckey'
p1144
S'1_623474730|2_623474825|3_623474792|1000_1493253001'
p1145
sS'url'
p1146
Vhttps://wx2.qq.com/cgi-bin/mmwebwx-bin
p1147
sS'pass_ticket'
p1148
VHpoVkLXu2eGKWkXSPbuD3Y1zl7ckQkYlqfPKpWd2PWv5uHUViXjnLUbi9jnEPqhO
p1149
sS'wxsid'
p1150
VCqEZipzAxGcBAigq
p1151
sS'InviteStartCount'
p1152
I40
sS'deviceid'
p1153
S'e229948295081268'
p1154
sS'fileUrl'
p1155
S'https://file.wx2.qq.com/cgi-bin/mmwebwx-bin'
p1156
sS'BaseRequest'
p1157
(dp1158
g45
g1143
sS'Skey'
p1159
g1141
sS'DeviceID'
p1160
g1149
sS'Sid'
p1161
g1151
ssS'User'
p1162
g25
(g29
g30
(dp1163
=======
sVRemarkName
p697
g43
sVIsOwner
p698
I0
sVSex
p699
I2
sVStarFriend
p700
I0
sVHideInputBarFlag
p701
I0
sVChatRoomId
p702
I0
sVEncryChatRoomId
p703
g43
sVAttrStatus
p704
I102437
sVStatues
p705
I0
stp706
Rp707
I1
batp708
Rp709
I1
bsS'chatroomList'
p710
g25
(g26
g27
(lp711
g25
(citchat.storage.templates
Chatroom
p712
g30
(dp713
VUserName
p714
V@@c23d40efc6ad57735d5b132af93f6c6302b4793b0a6ca32150da7ef79fb72c77
p715
sVCity
p716
g43
sVDisplayName
p717
g43
sVUniFriend
p718
I0
sS'Self'
p719
g25
(g29
g30
(dp720
g32
g22
sg33
g34
sg35
g34
sg36
I0
sg37
I0
sg38
g25
(g26
g27
(lp721
tp722
Rp723
I1
bsg42
g43
sg44
g43
sg45
L3496066292L
sg46
I0
sg47
I0
sg48
g34
sg49
g34
sg50
g43
sg51
g43
sg52
I0
sg53
I0
sg54
I1
sg55
g34
sg56
I0
sg57
I1
sg58
I0
sg59
I0
sg60
g34
sg61
g43
sg62
I0
sg63
g64
sg65
g43
sg66
g67
sg68
I1
sg69
I0
sg70
I0
stp724
Rp725
I1
bsVMemberList
p726
g25
(g26
g27
(lp727
tp728
Rp729
I1
bsVPYQuanPin
p730
g43
sVRemarkPYInitial
p731
g43
sVSex
p732
I0
sVAppAccountFlag
p733
I0
sVVerifyFlag
p734
I0
sVProvince
p735
g43
sVKeyWord
p736
g43
sVRemarkName
p737
g43
sVPYInitial
p738
g43
sVIsOwner
p739
I0
sVChatRoomId
p740
I0
sVHideInputBarFlag
p741
I0
sVEncryChatRoomId
p742
g43
sVAttrStatus
p743
I0
sVSnsFlag
p744
I0
sVMemberCount
p745
I3
sVOwnerUin
p746
I0
sVAlias
p747
g43
sS'IsAdmin'
p748
NsVSignature
p749
g43
sVContactFlag
p750
I0
sVNickName
p751
V\u5b97\u5b89,\u54ce\u5466\u5582,\u5c0f\u5b89
p752
sVRemarkPYQuanPin
p753
g43
sVHeadImgUrl
p754
V/cgi-bin/mmwebwx-bin/webwxgetheadimg?seq=0&username=@@c23d40efc6ad57735d5b132af93f6c6302b4793b0a6ca32150da7ef79fb72c77&skey=@crypt_5c45189f_ac6e30c16a40cb55ad9023bcefd4d4fd
p755
sVUin
p756
I0
sVStarFriend
p757
I0
sVStatues
p758
I1
stp759
Rp760
I1
batp761
Rp762
I1
bsS'nickName'
p763
g64
sS'mpList'
p764
g25
(g26
g27
(lp765
g25
(citchat.storage.templates
MassivePlatform
p766
g30
(dp767
VUserName
p768
V@ad237f66003791be9d3ac3b202823675
p769
sVCity
p770
V\u6d77\u6dc0
p771
sVSnsFlag
p772
I0
sVDisplayName
p773
g43
sVUniFriend
p774
I0
sVMemberCount
p775
I0
sVOwnerUin
p776
I0
sVMemberList
p777
g41
sVAlias
p778
Vautohomeweixin
p779
sVPYQuanPin
p780
Vqichezhijia
p781
sVSignature
p782
V\u60a8\u8eab\u8fb9\u7684\u61c2\u8f66\u5bb6\u4eba\uff0c\u7ed9\u60a8\u5e26\u6765\u4e70\u8f66\u7528\u8f66\u53ca\u8f66\u751f\u6d3b\u7684\u5168\u7a0b\u670d\u52a1\uff0c\u503c\u5f97\u4fe1\u8d56\u7684\u4e92\u8054\u7f51\u6c7d\u8f66\u8425\u9500\u5e73\u53f0\u3002
p783
sVRemarkPYInitial
p784
g43
sVContactFlag
p785
I3
sVUin
p786
I0
sVNickName
p787
V\u6c7d\u8f66\u4e4b\u5bb6
p788
sVAppAccountFlag
p789
I0
sVVerifyFlag
p790
I24
sVRemarkPYQuanPin
p791
g43
sVHeadImgUrl
p792
V/cgi-bin/mmwebwx-bin/webwxgeticon?seq=619730103&username=@ad237f66003791be9d3ac3b202823675&skey=@crypt_5c45189f_ac6e30c16a40cb55ad9023bcefd4d4fd
p793
sVKeyWord
p794
Vgh_
p795
sVProvince
p796
V\u5317\u4eac
p797
sVPYInitial
p798
VQCZJ
p799
sVRemarkName
p800
g43
sVIsOwner
p801
I0
sVSex
p802
I0
sVStarFriend
p803
I0
sVHideInputBarFlag
p804
I0
sVChatRoomId
p805
I0
sVEncryChatRoomId
p806
g43
sVAttrStatus
p807
I0
sVStatues
p808
I0
stp809
Rp810
I1
bag25
(g766
g30
(dp811
VUserName
p812
V@62e60708f5f817faec7afd2f0a4319a7
p813
sVCity
p814
V\u6606\u660e
p815
sVSnsFlag
p816
I0
sVDisplayName
p817
g43
sVUniFriend
p818
I0
sVMemberCount
p819
I0
sVOwnerUin
p820
I0
sVMemberList
p821
g41
sVAlias
p822
g43
sVPYQuanPin
p823
Vyunnaheyuzhuangshi
p824
sVSignature
p825
V\u4e3b\u8981\u627f\u63a5\uff1a\u5bb6\u5c45\u3001\u5546\u4e1a\u5e97\u94fa\uff08\u8fde\u9501\u5e97\uff09\u3001\u529e\u516c\u3001\u9152\u5e97\u3001\u522b\u5885\u7b49\u88c5\u9970\u5de5\u7a0b\u65bd\u5de5\uff0c\u751f\u4ea7\u5b9a\u5236\u5404\u7c7b\u5c55\u5385\u5c55\u67dc\u3001\u4e13\u67dc\uff08\u70e4\u6f06\u3001\u73bb\u7483\u3001\u5b9e\u6728\u7b49\u6210\u54c1\u67dc\uff09\uff0c\u516c\u53f8\u4ee5\u8bbe\u8ba1\u4e3a\u6838\u5fc3\u4e0d\u65ad\u5bfb\u6c42\u88c5\u9970\u884c\u4e1a\u7684\u79c1\u5bfc\u6027\u3001\u81ea\u6211\u4e2a\u6027\u98ce\u683c\u521b\u4f5c\u7075\u9b42\u4e3a\u5ba2\u6237\u8bbe\u8ba1\u51fa\u60a8\u7684\u7406\u5ff5\u9700\u6c42\u3002
p826
sVRemarkPYInitial
p827
g43
sVContactFlag
p828
I3
sVUin
p829
I0
sVNickName
p830
V\u4e91\u5357\u9e64\u7389\u88c5\u9970
p831
sVAppAccountFlag
p832
I0
sVVerifyFlag
p833
I8
sVRemarkPYQuanPin
p834
g43
sVHeadImgUrl
p835
V/cgi-bin/mmwebwx-bin/webwxgeticon?seq=606910278&username=@62e60708f5f817faec7afd2f0a4319a7&skey=@crypt_5c45189f_ac6e30c16a40cb55ad9023bcefd4d4fd
p836
sVKeyWord
p837
Vgh_
p838
sVProvince
p839
V\u4e91\u5357
p840
sVPYInitial
p841
VYNHYZS
p842
sVRemarkName
p843
g43
sVIsOwner
p844
I0
sVSex
p845
I0
sVStarFriend
p846
I0
sVHideInputBarFlag
p847
I0
sVChatRoomId
p848
I0
sVEncryChatRoomId
p849
g43
sVAttrStatus
p850
I0
sVStatues
p851
I0
stp852
Rp853
I1
bag25
(g766
g30
(dp854
VUserName
p855
V@18b99745ef778c0e422d0f933312aca2
p856
sVCity
p857
V\u6606\u660e
p858
sVSnsFlag
p859
I0
sVDisplayName
p860
g43
sVUniFriend
p861
I0
sVMemberCount
p862
I0
sVOwnerUin
p863
I0
sVMemberList
p864
g41
sVAlias
p865
Vdmq100
p866
sVPYQuanPin
p867
Vyunnadumuqiaojiaoyozixunyouxiangongsi
p868
sVSignature
p869
V\u6559\u80b2\u4fe1\u606f\u54a8\u8be2\uff1b\u56fd\u5185\u7248\u4e66\u520a\u7684\u9500\u552e\u3002
p870
sVRemarkPYInitial
p871
g43
sVContactFlag
p872
I3
sVUin
p873
I0
sVNickName
p874
V\u4e91\u5357\u72ec\u6728\u6865\u6559\u80b2\u54a8\u8be2\u6709\u9650\u516c\u53f8
p875
sVAppAccountFlag
p876
I0
sVVerifyFlag
p877
I24
sVRemarkPYQuanPin
p878
g43
sVHeadImgUrl
p879
V/cgi-bin/mmwebwx-bin/webwxgeticon?seq=608360022&username=@18b99745ef778c0e422d0f933312aca2&skey=@crypt_5c45189f_ac6e30c16a40cb55ad9023bcefd4d4fd
p880
sVKeyWord
p881
Vgh_
p882
sVProvince
p883
V\u4e91\u5357
p884
sVPYInitial
p885
VYNDMQJYZXYXGS
p886
sVRemarkName
p887
g43
sVIsOwner
p888
I0
sVSex
p889
I0
sVStarFriend
p890
I0
sVHideInputBarFlag
p891
I0
sVChatRoomId
p892
I0
sVEncryChatRoomId
p893
g43
sVAttrStatus
p894
I0
sVStatues
p895
I0
stp896
Rp897
I1
bag25
(g766
g30
(dp898
VUserName
p899
V@1c78a08b2a115abfb4f5a98a7255862c
p900
sVCity
p901
V\u6606\u660e
p902
sVSnsFlag
p903
I0
sVDisplayName
p904
g43
sVUniFriend
p905
I0
sVMemberCount
p906
I0
sVOwnerUin
p907
I0
sVMemberList
p908
g41
sVAlias
p909
VMr_ZongAn
p910
sVPYQuanPin
p911
VMrZong
p912
sVSignature
p913
VJust Do IT\uff0c\u5f88\u591a\u5b69\u5b50\u542c\u4e86\u4e54\u4e39\u7684\u8bdd\uff0c\u4ece\u6b64\u8fdb\u5165\u4e86IT\u884c\u4e1a\u3002
p914
sVRemarkPYInitial
p915
g43
sVContactFlag
p916
I3
sVUin
p917
I0
sVNickName
p918
VMrZong
p919
sVAppAccountFlag
p920
I0
sVVerifyFlag
p921
I8
sVRemarkPYQuanPin
p922
g43
sVHeadImgUrl
p923
V/cgi-bin/mmwebwx-bin/webwxgeticon?seq=608360071&username=@1c78a08b2a115abfb4f5a98a7255862c&skey=@crypt_5c45189f_ac6e30c16a40cb55ad9023bcefd4d4fd
p924
sVKeyWord
p925
Vgh_
p926
sVProvince
p927
V\u4e91\u5357
p928
sVPYInitial
p929
VMRZONG
p930
sVRemarkName
p931
g43
sVIsOwner
p932
I0
sVSex
p933
I0
sVStarFriend
p934
I0
sVHideInputBarFlag
p935
I0
sVChatRoomId
p936
I0
sVEncryChatRoomId
p937
g43
sVAttrStatus
p938
I0
sVStatues
p939
I0
stp940
Rp941
I1
bag25
(g766
g30
(dp942
VUserName
p943
V@1bba9b59695b4c9c6fc8bfd9bce15a01
p944
sVCity
p945
V\u6606\u660e
p946
sVSnsFlag
p947
I0
sVDisplayName
p948
g43
sVUniFriend
p949
I0
sVMemberCount
p950
I0
sVOwnerUin
p951
I0
sVMemberList
p952
g41
sVAlias
p953
g43
sVPYQuanPin
p954
Vyunnanongjinhuahuiyouxiangongsi
p955
sVSignature
p956
V\u56fd\u5185\u8d38\u6613\u3001\u7269\u8d44\u4f9b\u9500\uff0c\u8fdb\u51fa\u53e3\u8d38\u6613\uff0c\u7535\u5b50\u5546\u52a1\uff0c\u82b1\u5349\u7684\u79cd\u690d\u53ca\u9500\u552e\u3002
p957
sVRemarkPYInitial
p958
g43
sVContactFlag
p959
I3
sVUin
p960
I0
sVNickName
p961
V\u4e91\u5357\u519c\u9526\u82b1\u5349\u6709\u9650\u516c\u53f8
p962
sVAppAccountFlag
p963
I0
sVVerifyFlag
p964
I24
sVRemarkPYQuanPin
p965
g43
sVHeadImgUrl
p966
V/cgi-bin/mmwebwx-bin/webwxgeticon?seq=608360076&username=@1bba9b59695b4c9c6fc8bfd9bce15a01&skey=@crypt_5c45189f_ac6e30c16a40cb55ad9023bcefd4d4fd
p967
sVKeyWord
p968
Vgh_
p969
sVProvince
p970
V\u4e91\u5357
p971
sVPYInitial
p972
VYNNJHHYXGS
p973
sVRemarkName
p974
g43
sVIsOwner
p975
I0
sVSex
p976
I0
sVStarFriend
p977
I0
sVHideInputBarFlag
p978
I0
sVChatRoomId
p979
I0
sVEncryChatRoomId
p980
g43
sVAttrStatus
p981
I0
sVStatues
p982
I0
stp983
Rp984
I1
bag25
(g766
g30
(dp985
VUserName
p986
V@4a52f0867403889bdb5a6f8b4294bdf7
p987
sVCity
p988
V\u6606\u660e
p989
sVSnsFlag
p990
I0
sVDisplayName
p991
g43
sVUniFriend
p992
I0
sVMemberCount
p993
I0
sVOwnerUin
p994
I0
sVMemberList
p995
g41
sVAlias
p996
g43
sVPYQuanPin
p997
Vyunnayinruankejiyouxiangongsi
p998
sVSignature
p999
V\u4f01\u4e1a\u7f51\u7edc\u54c1\u724c\u5ba3\u4f20\u3001\u7f51\u7edc\u8425\u9500\uff0c\u4f01\u4e1a\u7f51\u7ad9\u8ba2\u5236\u4e0e\u63a8\u5e7f\uff1b\u5fae\u4fe1\u5546\u57ce\u3001\u5fae\u4fe1\u8425\u9500\u3001\u5fae\u4fe1\u516c\u4f17\u5e73\u53f0\uff1bAPP\u5546\u57ce\u53ca\u5176\u4ed6\u8f6f\u4ef6\u5f00\u53d1\uff1b\u4f01\u4e1aCRM\u3001OA\u53caERP\u7cfb\u7edf\u7684\u5f00\u53d1\u4e0e\u642d\u5efa\u7b49\u4e1a\u52a1\u3002
p1000
sVRemarkPYInitial
p1001
g43
sVContactFlag
p1002
I1
sVUin
p1003
I0
sVNickName
p1004
V\u4e91\u5357\u94f6\u8f6f\u79d1\u6280\u6709\u9650\u516c\u53f8
p1005
sVAppAccountFlag
p1006
I0
sVVerifyFlag
p1007
I24
sVRemarkPYQuanPin
p1008
g43
sVHeadImgUrl
p1009
V/cgi-bin/mmwebwx-bin/webwxgeticon?seq=609230006&username=@4a52f0867403889bdb5a6f8b4294bdf7&skey=@crypt_5c45189f_ac6e30c16a40cb55ad9023bcefd4d4fd
p1010
sVKeyWord
p1011
Vgh_
p1012
sVProvince
p1013
V\u4e91\u5357
p1014
sVPYInitial
p1015
VYNYRKJYXGS
p1016
sVRemarkName
p1017
g43
sVIsOwner
p1018
I0
sVSex
p1019
I0
sVStarFriend
p1020
I0
sVHideInputBarFlag
p1021
I0
sVChatRoomId
p1022
I0
sVEncryChatRoomId
p1023
g43
sVAttrStatus
p1024
I0
sVStatues
p1025
I0
stp1026
Rp1027
I1
bag25
(g766
g30
(dp1028
VUserName
p1029
V@3909944d94813b344f6fd7f29b81bb63
p1030
sVCity
p1031
V\u6606\u660e
p1032
sVSnsFlag
p1033
I0
sVDisplayName
p1034
g43
sVUniFriend
p1035
I0
sVMemberCount
p1036
I0
sVOwnerUin
p1037
I0
sVMemberList
p1038
g41
sVAlias
p1039
g43
sVPYQuanPin
p1040
Vhongxinghaoyunkuajingwuliupingtai
p1041
sVSignature
p1042
V\u7acb\u8db3\u4e91\u5357\uff0c\u9762\u5411\u4e1c\u5357\u4e9a\uff0c\u8f90\u5c04\u56fd\u5185\u7684\u8de8\u5883\u7269\u6d41\u516c\u4f17\u5e73\u53f0\u3002\u81f4\u529b\u642d\u5efa\u6e44\u516c\u6cb3\u6b21\u533a\u57df\u8de8\u5883\u8d27\u8fd0\u8f66\u8f86\u8fd0\u529b\u6c60\uff0c\u6784\u5efa\u8de8\u5883\u7269\u6d41\u4ea7\u4e1a\u751f\u6001\u5708\u3002\u4e3a\u8f66\u4e3b\u548c\u8d27\u4e3b\u63d0\u4f9b\u76f4\u63a5\u7ebf\u4e0a\u5bf9\u63a5\u7684\u529f\u80fd\uff0c\u53ca\u65f6\u83b7\u53d6\u8d27\u6e90\u53ca\u8f66\u6e90,\u5b8c\u6210\u63a5\u5355\u3001\u8fd0\u8f93\u3001\u6536\u8d27\u3001\u6536\u6b3e\u7b49\u8fc7\u7a0b\u3002
p1043
sVRemarkPYInitial
p1044
g43
sVContactFlag
p1045
I3
sVUin
p1046
I0
sVNickName
p1047
V\u5b8f\u661f\u597d\u8fd0\u8de8\u5883\u7269\u6d41\u5e73\u53f0
p1048
sVAppAccountFlag
p1049
I0
sVVerifyFlag
p1050
I24
sVRemarkPYQuanPin
p1051
g43
sVHeadImgUrl
p1052
V/cgi-bin/mmwebwx-bin/webwxgeticon?seq=623474693&username=@3909944d94813b344f6fd7f29b81bb63&skey=@crypt_5c45189f_ac6e30c16a40cb55ad9023bcefd4d4fd
p1053
sVKeyWord
p1054
Vgh_
p1055
sVProvince
p1056
V\u4e91\u5357
p1057
sVPYInitial
p1058
VHXHYKJWLPT
p1059
sVRemarkName
p1060
g43
sVIsOwner
p1061
I0
sVSex
p1062
I0
sVStarFriend
p1063
I0
sVHideInputBarFlag
p1064
I0
sVChatRoomId
p1065
I0
sVEncryChatRoomId
p1066
g43
sVAttrStatus
p1067
I0
sVStatues
p1068
I0
stp1069
Rp1070
I1
batp1071
Rp1072
I1
bssS'loginInfo'
p1073
(dp1074
S'SyncKey'
p1075
(dp1076
VCount
p1077
I4
sVList
p1078
(lp1079
(dp1080
VVal
p1081
I623474730
sVKey
p1082
I1
sa(dp1083
VVal
p1084
I623474805
sVKey
p1085
I2
sa(dp1086
VVal
p1087
I623474792
sVKey
p1088
I3
sa(dp1089
VVal
p1090
I1493200441
sVKey
p1091
I1000
sassS'syncUrl'
p1092
S'https://webpush.wx2.qq.com/cgi-bin/mmwebwx-bin'
p1093
sS'skey'
p1094
V@crypt_5c45189f_ac6e30c16a40cb55ad9023bcefd4d4fd
p1095
sS'wxuin'
p1096
V3496066292
p1097
sS'synckey'
p1098
S'1_623474730|2_623474805|3_623474792|1000_1493200441'
p1099
sS'url'
p1100
Vhttps://wx2.qq.com/cgi-bin/mmwebwx-bin
p1101
sS'pass_ticket'
p1102
VO0i6P%2Frr8T8Q%2BVVy2vADwMtKoOCbENAw6fBG53avLsKAPXdS%2B1sBhYaWGnFa%2BRT8
p1103
sS'wxsid'
p1104
V3K8ec75IvmyhY5lB
p1105
sS'InviteStartCount'
p1106
I40
sS'deviceid'
p1107
S'e570298992649652'
p1108
sS'fileUrl'
p1109
S'https://file.wx2.qq.com/cgi-bin/mmwebwx-bin'
p1110
sS'BaseRequest'
p1111
(dp1112
g45
g1097
sS'Skey'
p1113
g1095
sS'DeviceID'
p1114
g1103
sS'Sid'
p1115
g1105
ssS'User'
p1116
g25
(g29
g30
(dp1117
>>>>>>> 2096059369bd2f711f1490b707324a39314e76ac
g32
g22
sg33
g34
sg35
g34
sg36
I0
sg38
g41
sg42
g43
sg44
g43
sg68
I1
sg46
I0
sg47
I0
sg48
g34
sg49
g34
sg50
g43
sg51
g43
sg52
I0
sg53
I0
sg54
I1
sg55
g34
sg56
I0
sg59
I0
sg57
I1
sg58
I0
sg37
I0
sg60
g34
sg61
g43
sg62
I0
sg63
g64
sg65
g43
sg66
g67
sg45
L3496066292L
sg69
I0
sg70
I0
<<<<<<< HEAD
stp1164
Rp1165
=======
stp1118
Rp1119
>>>>>>> 2096059369bd2f711f1490b707324a39314e76ac
I1
bss.