(dp0
S'cookies'
p1
(dp2
S'wxloadtime'
p3
S'1493708683'
p4
sS'webwx_data_ticket'
p5
S'gSd8AtFigqToD8cQM5edlPvh'
p6
sS'wxuin'
p7
S'3496066292'
p8
sS'login_frequency'
p9
S'2'
p10
sS'MM_WX_NOTIFY_STATE'
p11
S'1'
p12
sS'MM_WX_SOUND_STATE'
p13
g12
sS'webwx_auth_ticket'
p14
S'CIsBEIf9r5EFGoABPTcGzit8+nfZmxLW22g/eg6l99J9YSfV+YU89JaARX4BuAC1rF0d01PPblwEIZzb29hN61JWaRFf16UK9f3jemIphziLZJcKW5MAShhLtZK0gRvjFcVE7wZxx/QkOpZnfsjJxqeQ7ccGNc9W5sK0KsD6orwCudAAyMPeIfZvHPE='
p15
sS'last_wxuin'
p16
S'3496066292'
p17
sS'webwxuvid'
p18
S'252a7d16bab750836d081a19cee5685b3733ad8eb7110e239f9c7d02a457e8836e25ab2c904e659c3441d47aedb09587'
p19
sS'wxpluginkey'
p20
S'1493691648'
p21
sS'wxsid'
p22
S'Vmcb6brLn/CRVUN3'
p23
sS'mm_lang'
p24
S'zh_CN'
p25
ssS'version'
p26
S'1.3.5'
p27
sS'storage'
p28
(dp29
S'userName'
p30
V@0fd1aea5a8ded86a55e313d498ca6c67ac80e83398bfc20fae9764f7b4f2e053
p31
sS'lastInputUserName'
p32
NsS'memberList'
p33
ccopy_reg
_reconstructor
p34
(citchat.storage.templates
ContactList
p35
c__builtin__
list
p36
(lp37
g34
(citchat.storage.templates
User
p38
c__builtin__
dict
p39
(dp40
S'UserName'
p41
g31
sS'City'
p42
S''
p43
sS'DisplayName'
p44
g43
sS'UniFriend'
p45
I0
sS'OwnerUin'
p46
I0
sS'MemberList'
p47
g34
(g35
g36
(lp48
tp49
Rp50
I1
bsS'PYQuanPin'
p51
V
p52
sS'RemarkPYInitial'
p53
g52
sS'Uin'
p54
L3496066292L
sS'AppAccountFlag'
p55
I0
sS'VerifyFlag'
p56
I0
sS'Province'
p57
g43
sS'KeyWord'
p58
g43
sS'RemarkName'
p59
g52
sS'PYInitial'
p60
g52
sS'ChatRoomId'
p61
I0
sS'HideInputBarFlag'
p62
I0
sVHeadImgFlag
p63
I1
sS'EncryChatRoomId'
p64
g43
sS'AttrStatus'
p65
I0
sS'SnsFlag'
p66
I1
sS'MemberCount'
p67
I0
sVWebWxPluginSwitch
p68
I0
sS'Alias'
p69
g43
sS'Signature'
p70
g52
sS'ContactFlag'
p71
I0
sS'NickName'
p72
V\u5c0f\u5b89
p73
sS'RemarkPYQuanPin'
p74
g52
sS'HeadImgUrl'
p75
V/cgi-bin/mmwebwx-bin/webwxgeticon?seq=536071443&username=@0fd1aea5a8ded86a55e313d498ca6c67ac80e83398bfc20fae9764f7b4f2e053&skey=@crypt_5c45189f_c3a35d1488a399f1ca95eaea666ff4d9
p76
sS'Sex'
p77
I1
sS'StarFriend'
p78
I0
sS'Statues'
p79
I0
stp80
Rp81
I1
bag34
(g38
g39
(dp82
VUserName
p83
V@abf9b3c216d2d93055173c7048d09fc25fa7f7836436a8577ea9cada2066ea6d
p84
sVCity
p85
V\u6606\u660e
p86
sVSnsFlag
p87
I17
sVDisplayName
p88
g52
sVUniFriend
p89
I0
sVMemberCount
p90
I0
sVOwnerUin
p91
I0
sVMemberList
p92
g50
sVAlias
p93
g52
sVPYQuanPin
p94
Vkunming0mingyuchonggongzhuangzaijizongjingxiaoshang
p95
sVSignature
p96
V\u672c\u4eba\u9500\u552e\u5404\u79cd\u5927\u5c0f\u88c5\u8f7d\u673a\u3002
p97
sVRemarkPYInitial
p98
g52
sVContactFlag
p99
I3
sVUin
p100
I0
sVNickName
p101
V\u6606\u660e^0^\u660e\u5b87\u91cd\u5de5\u88c5\u8f7d\u673a\u603b\u7ecf\u9500\u5546
p102
sVAppAccountFlag
p103
I0
sVVerifyFlag
p104
I0
sVRemarkPYQuanPin
p105
g52
sVHeadImgUrl
p106
V/cgi-bin/mmwebwx-bin/webwxgeticon?seq=623475295&username=@abf9b3c216d2d93055173c7048d09fc25fa7f7836436a8577ea9cada2066ea6d&skey=@crypt_5c45189f_c3a35d1488a399f1ca95eaea666ff4d9
p107
sVKeyWord
p108
g52
sVProvince
p109
V\u4e91\u5357
p110
sVPYInitial
p111
VKM0MYCGZZJZJXS
p112
sVRemarkName
p113
g52
sVIsOwner
p114
I0
sVSex
p115
I1
sVStarFriend
p116
I0
sVHideInputBarFlag
p117
I0
sVChatRoomId
p118
I0
sVEncryChatRoomId
p119
g52
sVAttrStatus
p120
I4133
sVStatues
p121
I0
stp122
Rp123
I1
bag34
(g38
g39
(dp124
VUserName
p125
V@86783e651ad25dc4af50b429712f89fd1752cef0dbba8eb1dab83643aafdca6c
p126
sVCity
p127
g52
sVSnsFlag
p128
I16
sVDisplayName
p129
g52
sVUniFriend
p130
I0
sVMemberCount
p131
I0
sVOwnerUin
p132
I0
sVMemberList
p133
g50
sVAlias
p134
g52
sVPYQuanPin
p135
Vzongfajun
p136
sVSignature
p137
g52
sVRemarkPYInitial
p138
g52
sVContactFlag
p139
I3
sVUin
p140
I0
sVNickName
p141
V\u5b97\u53d1\u519b
p142
sVAppAccountFlag
p143
I0
sVVerifyFlag
p144
I0
sVRemarkPYQuanPin
p145
g52
sVHeadImgUrl
p146
V/cgi-bin/mmwebwx-bin/webwxgeticon?seq=610250005&username=@86783e651ad25dc4af50b429712f89fd1752cef0dbba8eb1dab83643aafdca6c&skey=@crypt_5c45189f_c3a35d1488a399f1ca95eaea666ff4d9
p147
sVKeyWord
p148
g52
sVProvince
p149
g52
sVPYInitial
p150
VZFJ
p151
sVRemarkName
p152
g52
sVIsOwner
p153
I0
sVSex
p154
I0
sVStarFriend
p155
I0
sVHideInputBarFlag
p156
I0
sVChatRoomId
p157
I0
sVEncryChatRoomId
p158
g52
sVAttrStatus
p159
I4133
sVStatues
p160
I0
stp161
Rp162
I1
bag34
(g38
g39
(dp163
VUserName
p164
V@6fde18d7e9a67dbcdafd37a8f53b40f1a4231b538c6bade0e508de1403924df1
p165
sVCity
p166
g52
sVSnsFlag
p167
I17
sVDisplayName
p168
g52
sVUniFriend
p169
I0
sVMemberCount
p170
I0
sVOwnerUin
p171
I0
sVMemberList
p172
g50
sVAlias
p173
g52
sVPYQuanPin
p174
Vniannian
p175
sVSignature
p176
g52
sVRemarkPYInitial
p177
g52
sVContactFlag
p178
I3
sVUin
p179
I0
sVNickName
p180
V\u5e74\u5e74
p181
sVAppAccountFlag
p182
I0
sVVerifyFlag
p183
I0
sVRemarkPYQuanPin
p184
g52
sVHeadImgUrl
p185
V/cgi-bin/mmwebwx-bin/webwxgeticon?seq=612140030&username=@6fde18d7e9a67dbcdafd37a8f53b40f1a4231b538c6bade0e508de1403924df1&skey=@crypt_5c45189f_c3a35d1488a399f1ca95eaea666ff4d9
p186
sVKeyWord
p187
g52
sVProvince
p188
VWicklow
p189
sVPYInitial
p190
VNN
p191
sVRemarkName
p192
g52
sVIsOwner
p193
I0
sVSex
p194
I2
sVStarFriend
p195
I0
sVHideInputBarFlag
p196
I0
sVChatRoomId
p197
I0
sVEncryChatRoomId
p198
g52
sVAttrStatus
p199
I233509
sVStatues
p200
I0
stp201
Rp202
I1
bag34
(g38
g39
(dp203
VUserName
p204
V@1a902cf98b5268872fc4fd6e4ea6a2907632609a209ffb8debc20911069bad7c
p205
sVCity
p206
V\u6606\u660e
p207
sVSnsFlag
p208
I17
sVDisplayName
p209
g52
sVUniFriend
p210
I0
sVMemberCount
p211
I0
sVOwnerUin
p212
I0
sVMemberList
p213
g50
sVAlias
p214
g52
sVPYQuanPin
p215
Vzhuimeng
p216
sVSignature
p217
g52
sVRemarkPYInitial
p218
g52
sVContactFlag
p219
I3
sVUin
p220
I0
sVNickName
p221
V\u8ffd\u68a6
p222
sVAppAccountFlag
p223
I0
sVVerifyFlag
p224
I0
sVRemarkPYQuanPin
p225
g52
sVHeadImgUrl
p226
V/cgi-bin/mmwebwx-bin/webwxgeticon?seq=614850104&username=@1a902cf98b5268872fc4fd6e4ea6a2907632609a209ffb8debc20911069bad7c&skey=@crypt_5c45189f_c3a35d1488a399f1ca95eaea666ff4d9
p227
sVKeyWord
p228
g52
sVProvince
p229
V\u4e91\u5357
p230
sVPYInitial
p231
VZM
p232
sVRemarkName
p233
g52
sVIsOwner
p234
I0
sVSex
p235
I1
sVStarFriend
p236
I0
sVHideInputBarFlag
p237
I0
sVChatRoomId
p238
I0
sVEncryChatRoomId
p239
g52
sVAttrStatus
p240
I167973
sVStatues
p241
I0
stp242
Rp243
I1
bag34
(g38
g39
(dp244
VUserName
p245
V@02d83bd922d0b0d04998e79145a11a28
p246
sVCity
p247
V\u66f2\u9756
p248
sVSnsFlag
p249
I17
sVDisplayName
p250
g52
sVUniFriend
p251
I0
sVMemberCount
p252
I0
sVOwnerUin
p253
I0
sVMemberList
p254
g50
sVAlias
p255
g52
sVPYQuanPin
p256
Vzonglingxian
p257
sVSignature
p258
V\u7ea2\u989c\u6613\u788e\u4e0d\u5982\u626e\u94dc\u5899\u94c1\u58c1
p259
sVRemarkPYInitial
p260
g52
sVContactFlag
p261
I3
sVUin
p262
I0
sVNickName
p263
V\u5b97\u73b2\u4ed9
p264
sVAppAccountFlag
p265
I0
sVVerifyFlag
p266
I0
sVRemarkPYQuanPin
p267
g52
sVHeadImgUrl
p268
V/cgi-bin/mmwebwx-bin/webwxgeticon?seq=617220003&username=@02d83bd922d0b0d04998e79145a11a28&skey=@crypt_5c45189f_c3a35d1488a399f1ca95eaea666ff4d9
p269
sVKeyWord
p270
Vzon
p271
sVProvince
p272
V\u4e91\u5357
p273
sVPYInitial
p274
VZLX
p275
sVRemarkName
p276
g52
sVIsOwner
p277
I0
sVSex
p278
I2
sVStarFriend
p279
I0
sVHideInputBarFlag
p280
I0
sVChatRoomId
p281
I0
sVEncryChatRoomId
p282
g52
sVAttrStatus
p283
I1127
sVStatues
p284
I0
stp285
Rp286
I1
bag34
(g38
g39
(dp287
VUserName
p288
V@f89f82436cbbc3dea0657aea08e95186
p289
sVCity
p290
V\u6606\u660e
p291
sVSnsFlag
p292
I17
sVDisplayName
p293
g52
sVUniFriend
p294
I0
sVMemberCount
p295
I0
sVOwnerUin
p296
I0
sVMemberList
p297
g50
sVAlias
p298
g52
sVPYQuanPin
p299
Vtangrongbin
p300
sVSignature
p301
Vlove is a touch and yet not a touch.
p302
sVRemarkPYInitial
p303
g52
sVContactFlag
p304
I3
sVUin
p305
I0
sVNickName
p306
V\u5510\u8363\u658c
p307
sVAppAccountFlag
p308
I0
sVVerifyFlag
p309
I0
sVRemarkPYQuanPin
p310
g52
sVHeadImgUrl
p311
V/cgi-bin/mmwebwx-bin/webwxgeticon?seq=619730260&username=@f89f82436cbbc3dea0657aea08e95186&skey=@crypt_5c45189f_c3a35d1488a399f1ca95eaea666ff4d9
p312
sVKeyWord
p313
Vtrb
p314
sVProvince
p315
V\u4e91\u5357
p316
sVPYInitial
p317
VTRB
p318
sVRemarkName
p319
g52
sVIsOwner
p320
I0
sVSex
p321
I1
sVStarFriend
p322
I0
sVHideInputBarFlag
p323
I0
sVChatRoomId
p324
I0
sVEncryChatRoomId
p325
g52
sVAttrStatus
p326
I33784231
sVStatues
p327
I0
stp328
Rp329
I1
bag34
(g38
g39
(dp330
VUserName
p331
V@49e4d16b6bce1ccee4bb8d772a0e2cbc6f87eadbb545789d00633da9a3bfe35b
p332
sVCity
p333
V\u66f2\u9756
p334
sVSnsFlag
p335
I17
sVDisplayName
p336
g52
sVUniFriend
p337
I0
sVMemberCount
p338
I0
sVOwnerUin
p339
I0
sVMemberList
p340
g50
sVAlias
p341
g52
sVPYQuanPin
p342
VSunshine
p343
sVSignature
p344
V\u52ff\u671f\u671b\uff0c\u4e0d\u5931\u671b
p345
sVRemarkPYInitial
p346
g52
sVContactFlag
p347
I1
sVUin
p348
I0
sVNickName
p349
VSunshine
p350
sVAppAccountFlag
p351
I0
sVVerifyFlag
p352
I0
sVRemarkPYQuanPin
p353
g52
sVHeadImgUrl
p354
V/cgi-bin/mmwebwx-bin/webwxgeticon?seq=623473977&username=@49e4d16b6bce1ccee4bb8d772a0e2cbc6f87eadbb545789d00633da9a3bfe35b&skey=@crypt_5c45189f_c3a35d1488a399f1ca95eaea666ff4d9
p355
sVKeyWord
p356
g52
sVProvince
p357
V\u4e91\u5357
p358
sVPYInitial
p359
VSUNSHINE
p360
sVRemarkName
p361
g52
sVIsOwner
p362
I0
sVSex
p363
I2
sVStarFriend
p364
I0
sVHideInputBarFlag
p365
I0
sVChatRoomId
p366
I0
sVEncryChatRoomId
p367
g52
sVAttrStatus
p368
I33656957
sVStatues
p369
I0
stp370
Rp371
I1
bag34
(g38
g39
(dp372
VUserName
p373
V@434c9fc7df789516ba73d7b805c4adde51c4b89197c6e8942922fe6343d6443c
p374
sVCity
p375
V\u66f2\u9756
p376
sVSnsFlag
p377
I1
sVDisplayName
p378
g52
sVUniFriend
p379
I0
sVMemberCount
p380
I0
sVOwnerUin
p381
I0
sVMemberList
p382
g50
sVAlias
p383
g52
sVPYQuanPin
p384
Vzxiaoxue
p385
sVSignature
p386
V\u5fc3\u5982\u6b62\u6c34
p387
sVRemarkPYInitial
p388
g52
sVContactFlag
p389
I3
sVUin
p390
I0
sVNickName
p391
Vz\u5c0f\u5b66
p392
sVAppAccountFlag
p393
I0
sVVerifyFlag
p394
I0
sVRemarkPYQuanPin
p395
g52
sVHeadImgUrl
p396
V/cgi-bin/mmwebwx-bin/webwxgeticon?seq=623470052&username=@434c9fc7df789516ba73d7b805c4adde51c4b89197c6e8942922fe6343d6443c&skey=@crypt_5c45189f_c3a35d1488a399f1ca95eaea666ff4d9
p397
sVKeyWord
p398
g52
sVProvince
p399
V\u4e91\u5357
p400
sVPYInitial
p401
VZXX
p402
sVRemarkName
p403
g52
sVIsOwner
p404
I0
sVSex
p405
I1
sVStarFriend
p406
I0
sVHideInputBarFlag
p407
I0
sVChatRoomId
p408
I0
sVEncryChatRoomId
p409
g52
sVAttrStatus
p410
I4133
sVStatues
p411
I0
stp412
Rp413
I1
bag34
(g38
g39
(dp414
VUserName
p415
V@ed75e594a08e79ad792c7b806a5e1ba79b4ac8178b14657a10b368eb4fab1736
p416
sVCity
p417
V\u6606\u660e
p418
sVSnsFlag
p419
I17
sVDisplayName
p420
g52
sVUniFriend
p421
I0
sVMemberCount
p422
I0
sVOwnerUin
p423
I0
sVMemberList
p424
g50
sVAlias
p425
g52
sVPYQuanPin
p426
Vlongqiongzhangchengchanglonghuahui
p427
sVSignature
p428
V\u4ee5\u82b1\u4e3a\u5a92\uff0c\u4ea4\u5929\u4e0b\u670b\u53cb\u000a\u7ec4\u4e0a\u7b49\u82b1\uff0c\u8bda\u5bf9\u65b0\u8001\u5ba2\u6237\u000a\u6c42\u7f18\u5206\uff0c\u751f\u610f\u5e38\u5728
p429
sVRemarkPYInitial
p430
g52
sVContactFlag
p431
I65539
sVUin
p432
I0
sVNickName
p433
V\u9f99\u743c\u7ae0 (\u665f\u660c\u9f99\u82b1\u5349)
p434
sVAppAccountFlag
p435
I0
sVVerifyFlag
p436
I0
sVRemarkPYQuanPin
p437
g52
sVHeadImgUrl
p438
V/cgi-bin/mmwebwx-bin/webwxgeticon?seq=614850054&username=@ed75e594a08e79ad792c7b806a5e1ba79b4ac8178b14657a10b368eb4fab1736&skey=@crypt_5c45189f_c3a35d1488a399f1ca95eaea666ff4d9
p439
sVKeyWord
p440
g52
sVProvince
p441
V\u4e91\u5357
p442
sVPYInitial
p443
VLQZCCLHH
p444
sVRemarkName
p445
g52
sVIsOwner
p446
I0
sVSex
p447
I1
sVStarFriend
p448
I0
sVHideInputBarFlag
p449
I0
sVChatRoomId
p450
I0
sVEncryChatRoomId
p451
g52
sVAttrStatus
p452
I135205
sVStatues
p453
I0
stp454
Rp455
I1
bag34
(g38
g39
(dp456
VUserName
p457
V@4fda04cf84da2c64d345fd35e08afcdb04e276a0310bb16ac3db52046eca0350
p458
sVCity
p459
g52
sVSnsFlag
p460
I17
sVDisplayName
p461
g52
sVUniFriend
p462
I0
sVMemberCount
p463
I0
sVOwnerUin
p464
I0
sVMemberList
p465
g50
sVAlias
p466
g52
sVPYQuanPin
p467
Vfoyuan
p468
sVSignature
p469
g52
sVRemarkPYInitial
p470
g52
sVContactFlag
p471
I65539
sVUin
p472
I0
sVNickName
p473
V\u4f5b\u7f18
p474
sVAppAccountFlag
p475
I0
sVVerifyFlag
p476
I0
sVRemarkPYQuanPin
p477
g52
sVHeadImgUrl
p478
V/cgi-bin/mmwebwx-bin/webwxgeticon?seq=619730491&username=@4fda04cf84da2c64d345fd35e08afcdb04e276a0310bb16ac3db52046eca0350&skey=@crypt_5c45189f_c3a35d1488a399f1ca95eaea666ff4d9
p479
sVKeyWord
p480
g52
sVProvince
p481
g52
sVPYInitial
p482
VFY
p483
sVRemarkName
p484
g52
sVIsOwner
p485
I0
sVSex
p486
I1
sVStarFriend
p487
I0
sVHideInputBarFlag
p488
I0
sVChatRoomId
p489
I0
sVEncryChatRoomId
p490
g52
sVAttrStatus
p491
I4261
sVStatues
p492
I0
stp493
Rp494
I1
bag34
(g38
g39
(dp495
VUserName
p496
V@69a15dd3e7fb40a7f2885f7de418ce9df58c43575d147fede28dbf1ab7527faa
p497
sVCity
p498
V\u66f2\u9756
p499
sVSnsFlag
p500
I17
sVDisplayName
p501
g52
sVUniFriend
p502
I0
sVMemberCount
p503
I0
sVOwnerUin
p504
I0
sVMemberList
p505
g50
sVAlias
p506
g52
sVPYQuanPin
p507
Vheidebaidehuidespanclassemojiemoji1f340span
p508
sVSignature
p509
V\u82b1\u5e97\u5173\u4e86\uff0c\u82b1\u5f00\u4e86\u3002
p510
sVRemarkPYInitial
p511
g52
sVContactFlag
p512
I1
sVUin
p513
I0
sVNickName
p514
V\u9ed1\u7684\u767d\u7684\u7070\u7684\U0001f340
p515
sVAppAccountFlag
p516
I0
sVVerifyFlag
p517
I0
sVRemarkPYQuanPin
p518
g52
sVHeadImgUrl
p519
V/cgi-bin/mmwebwx-bin/webwxgeticon?seq=623474666&username=@69a15dd3e7fb40a7f2885f7de418ce9df58c43575d147fede28dbf1ab7527faa&skey=@crypt_5c45189f_c3a35d1488a399f1ca95eaea666ff4d9
p520
sVKeyWord
p521
g52
sVProvince
p522
V\u4e91\u5357
p523
sVPYInitial
p524
VHDBDHDSPANCLASSEMOJIEMOJI1F340SPAN
p525
sVRemarkName
p526
g52
sVIsOwner
p527
I0
sVSex
p528
I2
sVStarFriend
p529
I0
sVHideInputBarFlag
p530
I0
sVChatRoomId
p531
I0
sVEncryChatRoomId
p532
g52
sVAttrStatus
p533
I16897063
sVStatues
p534
I0
stp535
Rp536
I1
bag34
(g38
g39
(dp537
VUserName
p538
V@0a2ce0eba0027cfcde056d3b54eebc19
p539
sVCity
p540
V\u6606\u660e
p541
sVSnsFlag
p542
I17
sVDisplayName
p543
g52
sVUniFriend
p544
I0
sVMemberCount
p545
I0
sVOwnerUin
p546
I0
sVMemberList
p547
g50
sVAlias
p548
g52
sVPYQuanPin
p549
VAAtouyingjibingmuyinxiang18788497301bai
p550
sVSignature
p551
V\u6295\u5f71\u673a\u3001\u5c4f\u5e55\u3001\u97f3\u54cd2017\u73b0\u8d27\u6279\u53d1\uff01\u79d2\u53d1\uff01\u79d2\u9001\uff01\u7968\u88d518788497301
p552
sVRemarkPYInitial
p553
g52
sVContactFlag
p554
I65539
sVUin
p555
I0
sVNickName
p556
VAA\u6295\u5f71\u673a\u5c4f\u5e55\u97f3\u54cd18788497301\u767d
p557
sVAppAccountFlag
p558
I0
sVVerifyFlag
p559
I0
sVRemarkPYQuanPin
p560
g52
sVHeadImgUrl
p561
V/cgi-bin/mmwebwx-bin/webwxgeticon?seq=623474715&username=@0a2ce0eba0027cfcde056d3b54eebc19&skey=@crypt_5c45189f_c3a35d1488a399f1ca95eaea666ff4d9
p562
sVKeyWord
p563
Vbai
p564
sVProvince
p565
V\u4e91\u5357
p566
sVPYInitial
p567
VAATYJBMYX18788497301B
p568
sVRemarkName
p569
g52
sVIsOwner
p570
I0
sVSex
p571
I1
sVStarFriend
p572
I0
sVHideInputBarFlag
p573
I0
sVChatRoomId
p574
I0
sVEncryChatRoomId
p575
g52
sVAttrStatus
p576
L2151780453L
sVStatues
p577
I0
stp578
Rp579
I1
bag34
(g38
g39
(dp580
VUserName
p581
V@a51b6a0bd16868915af1ed345cdb37d9
p582
sVCity
p583
V\u6606\u660e
p584
sVSnsFlag
p585
I17
sVDisplayName
p586
g52
sVUniFriend
p587
I0
sVMemberCount
p588
I0
sVOwnerUin
p589
I0
sVMemberList
p590
g50
sVAlias
p591
g52
sVPYQuanPin
p592
Vzongan
p593
sVSignature
p594
g52
sVRemarkPYInitial
p595
g52
sVContactFlag
p596
I3
sVUin
p597
I0
sVNickName
p598
V\u5b97\u5b89
p599
sVAppAccountFlag
p600
I0
sVVerifyFlag
p601
I0
sVRemarkPYQuanPin
p602
g52
sVHeadImgUrl
p603
V/cgi-bin/mmwebwx-bin/webwxgeticon?seq=611350015&username=@a51b6a0bd16868915af1ed345cdb37d9&skey=@crypt_5c45189f_c3a35d1488a399f1ca95eaea666ff4d9
p604
sVKeyWord
p605
Vsiw
p606
sVProvince
p607
V\u4e91\u5357
p608
sVPYInitial
p609
VZA
p610
sVRemarkName
p611
g52
sVIsOwner
p612
I0
sVSex
p613
I1
sVStarFriend
p614
I0
sVHideInputBarFlag
p615
I0
sVChatRoomId
p616
I0
sVEncryChatRoomId
p617
g52
sVAttrStatus
p618
I127095
sVStatues
p619
I0
stp620
Rp621
I1
bag34
(g38
g39
(dp622
VUserName
p623
V@c3029871e0868775e79187d707c5a377d0315856a9ecb787c885c24e2086613c
p624
sVCity
p625
V\u6606\u660e
p626
sVSnsFlag
p627
I17
sVDisplayName
p628
g52
sVUniFriend
p629
I0
sVMemberCount
p630
I0
sVOwnerUin
p631
I0
sVMemberList
p632
g50
sVAlias
p633
g52
sVPYQuanPin
p634
VAispanclassemojiemoji1f340span
p635
sVSignature
p636
V<span class="emoji emoji1f33e"></span>
p637
sVRemarkPYInitial
p638
g52
sVContactFlag
p639
I3
sVUin
p640
I0
sVNickName
p641
VAi~\U0001f340
p642
sVAppAccountFlag
p643
I0
sVVerifyFlag
p644
I0
sVRemarkPYQuanPin
p645
g52
sVHeadImgUrl
p646
V/cgi-bin/mmwebwx-bin/webwxgeticon?seq=623474792&username=@c3029871e0868775e79187d707c5a377d0315856a9ecb787c885c24e2086613c&skey=@crypt_5c45189f_c3a35d1488a399f1ca95eaea666ff4d9
p647
sVKeyWord
p648
g52
sVProvince
p649
V\u4e91\u5357
p650
sVPYInitial
p651
VAISPANCLASSEMOJIEMOJI1F340SPAN
p652
sVRemarkName
p653
g52
sVIsOwner
p654
I0
sVSex
p655
I2
sVStarFriend
p656
I0
sVHideInputBarFlag
p657
I0
sVChatRoomId
p658
I0
sVEncryChatRoomId
p659
g52
sVAttrStatus
p660
I102437
sVStatues
p661
I0
stp662
Rp663
I1
bag34
(g38
g39
(dp664
VUserName
p665
V@304248d77a28b941846f50ae6ddb276c
p666
sVCity
p667
V\u6606\u660e
p668
sVSnsFlag
p669
I17
sVDisplayName
p670
g52
sVUniFriend
p671
I0
sVMemberCount
p672
I0
sVOwnerUin
p673
I0
sVMemberList
p674
g50
sVAlias
p675
g52
sVPYQuanPin
p676
Vguyue
p677
sVSignature
p678
V<span class="emoji emoji1f343"></span>\u65e5\u5b50\u5c31\u8981\u50cf\u82b1\u513f\u90a3\u822c\u707f\u70c2<span class="emoji emoji1f338"></span><span class="emoji emoji1f33b"></span>
p679
sVRemarkPYInitial
p680
g52
sVContactFlag
p681
I1
sVUin
p682
I0
sVNickName
p683
V\u53e4\u6708
p684
sVAppAccountFlag
p685
I0
sVVerifyFlag
p686
I0
sVRemarkPYQuanPin
p687
g52
sVHeadImgUrl
p688
V/cgi-bin/mmwebwx-bin/webwxgeticon?seq=623474952&username=@304248d77a28b941846f50ae6ddb276c&skey=@crypt_5c45189f_c3a35d1488a399f1ca95eaea666ff4d9
p689
sVKeyWord
p690
Vhux
p691
sVProvince
p692
V\u4e91\u5357
p693
sVPYInitial
p694
VGY
p695
sVRemarkName
p696
g52
sVIsOwner
p697
I0
sVSex
p698
I2
sVStarFriend
p699
I0
sVHideInputBarFlag
p700
I0
sVChatRoomId
p701
I0
sVEncryChatRoomId
p702
g52
sVAttrStatus
p703
I16881893
sVStatues
p704
I0
stp705
Rp706
I1
bag34
(g38
g39
(dp707
VUserName
p708
V@4a7a222fab6b83f7dca91ecc72dafadb
p709
sVCity
p710
g52
sVSnsFlag
p711
I49
sVDisplayName
p712
g52
sVUniFriend
p713
I0
sVMemberCount
p714
I0
sVOwnerUin
p715
I0
sVMemberList
p716
g50
sVAlias
p717
g52
sVPYQuanPin
p718
Vyushushu
p719
sVSignature
p720
g52
sVRemarkPYInitial
p721
g52
sVContactFlag
p722
I3
sVUin
p723
I0
sVNickName
p724
V\u7389\u8700\u9ecd
p725
sVAppAccountFlag
p726
I0
sVVerifyFlag
p727
I0
sVRemarkPYQuanPin
p728
g52
sVHeadImgUrl
p729
V/cgi-bin/mmwebwx-bin/webwxgeticon?seq=623475195&username=@4a7a222fab6b83f7dca91ecc72dafadb&skey=@crypt_5c45189f_c3a35d1488a399f1ca95eaea666ff4d9
p730
sVKeyWord
p731
Vyup
p732
sVProvince
p733
g52
sVPYInitial
p734
VYSS
p735
sVRemarkName
p736
g52
sVIsOwner
p737
I0
sVSex
p738
I2
sVStarFriend
p739
I0
sVHideInputBarFlag
p740
I0
sVChatRoomId
p741
I0
sVEncryChatRoomId
p742
g52
sVAttrStatus
p743
I83173
sVStatues
p744
I0
stp745
Rp746
I1
batp747
Rp748
I1
bsS'chatroomList'
p749
g34
(g35
g36
(lp750
g34
(citchat.storage.templates
Chatroom
p751
g39
(dp752
VUserName
p753
V@@f352479c3d533a86db3e0bf251921f8a4f94f553d1e6504b0aa4d91b844fd30b
p754
sVCity
p755
g52
sVDisplayName
p756
g52
sVUniFriend
p757
I0
sS'Self'
p758
g34
(g38
g39
(dp759
g41
g31
sg42
g43
sg44
g43
sg45
I0
sg46
I0
sg47
g34
(g35
g36
(lp760
tp761
Rp762
I1
bsg51
g52
sg53
g52
sg54
L3496066292L
sg55
I0
sg56
I0
sg57
g43
sg58
g43
sg59
g52
sg60
g52
sg61
I0
sg62
I0
sg63
I1
sg64
g43
sg65
I0
sg66
I1
sg67
I0
sg68
I0
sg69
g43
sg70
g52
sg71
I0
sg72
g73
sg74
g52
sg75
g76
sg77
I1
sg78
I0
sg79
I0
stp763
Rp764
I1
bsVMemberList
p765
g34
(g35
g36
(lp766
tp767
Rp768
I1
bsVPYQuanPin
p769
g52
sVRemarkPYInitial
p770
g52
sVSex
p771
I0
sVAppAccountFlag
p772
I0
sVVerifyFlag
p773
I0
sVProvince
p774
g52
sVKeyWord
p775
g52
sVRemarkName
p776
g52
sVPYInitial
p777
g52
sVIsOwner
p778
I1
sVChatRoomId
p779
I0
sVHideInputBarFlag
p780
I0
sVEncryChatRoomId
p781
g52
sVAttrStatus
p782
I0
sVSnsFlag
p783
I0
sVMemberCount
p784
I2
sVOwnerUin
p785
I0
sVAlias
p786
g52
sS'IsAdmin'
p787
NsVSignature
p788
g52
sVContactFlag
p789
I0
sVNickName
p790
VRobot
p791
sVRemarkPYQuanPin
p792
g52
sVHeadImgUrl
p793
V/cgi-bin/mmwebwx-bin/webwxgetheadimg?seq=0&username=@@f352479c3d533a86db3e0bf251921f8a4f94f553d1e6504b0aa4d91b844fd30b&skey=@crypt_5c45189f_c3a35d1488a399f1ca95eaea666ff4d9
p794
sVUin
p795
I0
sVStarFriend
p796
I0
sVStatues
p797
I1
stp798
Rp799
I1
batp800
Rp801
I1
bsS'nickName'
p802
g73
sS'mpList'
p803
g34
(g35
g36
(lp804
g34
(citchat.storage.templates
MassivePlatform
p805
g39
(dp806
VUserName
p807
V@6cdb71ff646308dbd5a0e4d04ecdc955
p808
sVCity
p809
V\u6d77\u6dc0
p810
sVSnsFlag
p811
I0
sVDisplayName
p812
g52
sVUniFriend
p813
I0
sVMemberCount
p814
I0
sVOwnerUin
p815
I0
sVMemberList
p816
g50
sVAlias
p817
g52
sVPYQuanPin
p818
Vqichezhijia
p819
sVSignature
p820
V\u60a8\u8eab\u8fb9\u7684\u61c2\u8f66\u5bb6\u4eba\uff0c\u7ed9\u60a8\u5e26\u6765\u4e70\u8f66\u7528\u8f66\u53ca\u8f66\u751f\u6d3b\u7684\u5168\u7a0b\u670d\u52a1\uff0c\u503c\u5f97\u4fe1\u8d56\u7684\u4e92\u8054\u7f51\u6c7d\u8f66\u8425\u9500\u5e73\u53f0\u3002
p821
sVRemarkPYInitial
p822
g52
sVContactFlag
p823
I3
sVUin
p824
I0
sVNickName
p825
V\u6c7d\u8f66\u4e4b\u5bb6
p826
sVAppAccountFlag
p827
I0
sVVerifyFlag
p828
I24
sVRemarkPYQuanPin
p829
g52
sVHeadImgUrl
p830
V/cgi-bin/mmwebwx-bin/webwxgeticon?seq=619730103&username=@6cdb71ff646308dbd5a0e4d04ecdc955&skey=@crypt_5c45189f_c3a35d1488a399f1ca95eaea666ff4d9
p831
sVKeyWord
p832
Vgh_
p833
sVProvince
p834
V\u5317\u4eac
p835
sVPYInitial
p836
VQCZJ
p837
sVRemarkName
p838
g52
sVIsOwner
p839
I0
sVSex
p840
I0
sVStarFriend
p841
I0
sVHideInputBarFlag
p842
I0
sVChatRoomId
p843
I0
sVEncryChatRoomId
p844
g52
sVAttrStatus
p845
I0
sVStatues
p846
I0
stp847
Rp848
I1
bag34
(g805
g39
(dp849
VUserName
p850
V@fe2c32c2b992d1b97ccd7e6bba8d9e18
p851
sVCity
p852
V\u6606\u660e
p853
sVSnsFlag
p854
I0
sVDisplayName
p855
g52
sVUniFriend
p856
I0
sVMemberCount
p857
I0
sVOwnerUin
p858
I0
sVMemberList
p859
g50
sVAlias
p860
g52
sVPYQuanPin
p861
Vyunnaheyuzhuangshi
p862
sVSignature
p863
V\u4e3b\u8981\u627f\u63a5\uff1a\u5bb6\u5c45\u3001\u5546\u4e1a\u5e97\u94fa\uff08\u8fde\u9501\u5e97\uff09\u3001\u529e\u516c\u3001\u9152\u5e97\u3001\u522b\u5885\u7b49\u88c5\u9970\u5de5\u7a0b\u65bd\u5de5\uff0c\u751f\u4ea7\u5b9a\u5236\u5404\u7c7b\u5c55\u5385\u5c55\u67dc\u3001\u4e13\u67dc\uff08\u70e4\u6f06\u3001\u73bb\u7483\u3001\u5b9e\u6728\u7b49\u6210\u54c1\u67dc\uff09\uff0c\u516c\u53f8\u4ee5\u8bbe\u8ba1\u4e3a\u6838\u5fc3\u4e0d\u65ad\u5bfb\u6c42\u88c5\u9970\u884c\u4e1a\u7684\u79c1\u5bfc\u6027\u3001\u81ea\u6211\u4e2a\u6027\u98ce\u683c\u521b\u4f5c\u7075\u9b42\u4e3a\u5ba2\u6237\u8bbe\u8ba1\u51fa\u60a8\u7684\u7406\u5ff5\u9700\u6c42\u3002
p864
sVRemarkPYInitial
p865
g52
sVContactFlag
p866
I3
sVUin
p867
I0
sVNickName
p868
V\u4e91\u5357\u9e64\u7389\u88c5\u9970
p869
sVAppAccountFlag
p870
I0
sVVerifyFlag
p871
I8
sVRemarkPYQuanPin
p872
g52
sVHeadImgUrl
p873
V/cgi-bin/mmwebwx-bin/webwxgeticon?seq=606910278&username=@fe2c32c2b992d1b97ccd7e6bba8d9e18&skey=@crypt_5c45189f_c3a35d1488a399f1ca95eaea666ff4d9
p874
sVKeyWord
p875
Vgh_
p876
sVProvince
p877
V\u4e91\u5357
p878
sVPYInitial
p879
VYNHYZS
p880
sVRemarkName
p881
g52
sVIsOwner
p882
I0
sVSex
p883
I0
sVStarFriend
p884
I0
sVHideInputBarFlag
p885
I0
sVChatRoomId
p886
I0
sVEncryChatRoomId
p887
g52
sVAttrStatus
p888
I0
sVStatues
p889
I0
stp890
Rp891
I1
bag34
(g805
g39
(dp892
VUserName
p893
V@67f3318777c8a068d6c9d71d27b41b8e
p894
sVCity
p895
V\u6606\u660e
p896
sVSnsFlag
p897
I0
sVDisplayName
p898
g52
sVUniFriend
p899
I0
sVMemberCount
p900
I0
sVOwnerUin
p901
I0
sVMemberList
p902
g50
sVAlias
p903
g52
sVPYQuanPin
p904
Vyunnadumuqiaojiaoyozixunyouxiangongsi
p905
sVSignature
p906
V\u6559\u80b2\u4fe1\u606f\u54a8\u8be2\uff1b\u56fd\u5185\u7248\u4e66\u520a\u7684\u9500\u552e\u3002
p907
sVRemarkPYInitial
p908
g52
sVContactFlag
p909
I3
sVUin
p910
I0
sVNickName
p911
V\u4e91\u5357\u72ec\u6728\u6865\u6559\u80b2\u54a8\u8be2\u6709\u9650\u516c\u53f8
p912
sVAppAccountFlag
p913
I0
sVVerifyFlag
p914
I24
sVRemarkPYQuanPin
p915
g52
sVHeadImgUrl
p916
V/cgi-bin/mmwebwx-bin/webwxgeticon?seq=608360022&username=@67f3318777c8a068d6c9d71d27b41b8e&skey=@crypt_5c45189f_c3a35d1488a399f1ca95eaea666ff4d9
p917
sVKeyWord
p918
Vgh_
p919
sVProvince
p920
V\u4e91\u5357
p921
sVPYInitial
p922
VYNDMQJYZXYXGS
p923
sVRemarkName
p924
g52
sVIsOwner
p925
I0
sVSex
p926
I0
sVStarFriend
p927
I0
sVHideInputBarFlag
p928
I0
sVChatRoomId
p929
I0
sVEncryChatRoomId
p930
g52
sVAttrStatus
p931
I0
sVStatues
p932
I0
stp933
Rp934
I1
bag34
(g805
g39
(dp935
VUserName
p936
V@5d55c324c63ae27375bc33ca1550e17f
p937
sVCity
p938
V\u6606\u660e
p939
sVSnsFlag
p940
I0
sVDisplayName
p941
g52
sVUniFriend
p942
I0
sVMemberCount
p943
I0
sVOwnerUin
p944
I0
sVMemberList
p945
g50
sVAlias
p946
g52
sVPYQuanPin
p947
VMrZong
p948
sVSignature
p949
VJust Do IT\uff0c\u5f88\u591a\u5b69\u5b50\u542c\u4e86\u4e54\u4e39\u7684\u8bdd\uff0c\u4ece\u6b64\u8fdb\u5165\u4e86IT\u884c\u4e1a\u3002
p950
sVRemarkPYInitial
p951
g52
sVContactFlag
p952
I3
sVUin
p953
I0
sVNickName
p954
VMrZong
p955
sVAppAccountFlag
p956
I0
sVVerifyFlag
p957
I8
sVRemarkPYQuanPin
p958
g52
sVHeadImgUrl
p959
V/cgi-bin/mmwebwx-bin/webwxgeticon?seq=608360071&username=@5d55c324c63ae27375bc33ca1550e17f&skey=@crypt_5c45189f_c3a35d1488a399f1ca95eaea666ff4d9
p960
sVKeyWord
p961
Vgh_
p962
sVProvince
p963
V\u4e91\u5357
p964
sVPYInitial
p965
VMRZONG
p966
sVRemarkName
p967
g52
sVIsOwner
p968
I0
sVSex
p969
I0
sVStarFriend
p970
I0
sVHideInputBarFlag
p971
I0
sVChatRoomId
p972
I0
sVEncryChatRoomId
p973
g52
sVAttrStatus
p974
I0
sVStatues
p975
I0
stp976
Rp977
I1
bag34
(g805
g39
(dp978
VUserName
p979
V@6f958ceb491390cda16ec046739c795f
p980
sVCity
p981
V\u6606\u660e
p982
sVSnsFlag
p983
I0
sVDisplayName
p984
g52
sVUniFriend
p985
I0
sVMemberCount
p986
I0
sVOwnerUin
p987
I0
sVMemberList
p988
g50
sVAlias
p989
g52
sVPYQuanPin
p990
Vyunnanongjinhuahuiyouxiangongsi
p991
sVSignature
p992
V\u56fd\u5185\u8d38\u6613\u3001\u7269\u8d44\u4f9b\u9500\uff0c\u8fdb\u51fa\u53e3\u8d38\u6613\uff0c\u7535\u5b50\u5546\u52a1\uff0c\u82b1\u5349\u7684\u79cd\u690d\u53ca\u9500\u552e\u3002
p993
sVRemarkPYInitial
p994
g52
sVContactFlag
p995
I3
sVUin
p996
I0
sVNickName
p997
V\u4e91\u5357\u519c\u9526\u82b1\u5349\u6709\u9650\u516c\u53f8
p998
sVAppAccountFlag
p999
I0
sVVerifyFlag
p1000
I24
sVRemarkPYQuanPin
p1001
g52
sVHeadImgUrl
p1002
V/cgi-bin/mmwebwx-bin/webwxgeticon?seq=608360076&username=@6f958ceb491390cda16ec046739c795f&skey=@crypt_5c45189f_c3a35d1488a399f1ca95eaea666ff4d9
p1003
sVKeyWord
p1004
Vgh_
p1005
sVProvince
p1006
V\u4e91\u5357
p1007
sVPYInitial
p1008
VYNNJHHYXGS
p1009
sVRemarkName
p1010
g52
sVIsOwner
p1011
I0
sVSex
p1012
I0
sVStarFriend
p1013
I0
sVHideInputBarFlag
p1014
I0
sVChatRoomId
p1015
I0
sVEncryChatRoomId
p1016
g52
sVAttrStatus
p1017
I0
sVStatues
p1018
I0
stp1019
Rp1020
I1
bag34
(g805
g39
(dp1021
VUserName
p1022
V@8d83a0992e379a25a7d0780ce4e4eb1e
p1023
sVCity
p1024
V\u6606\u660e
p1025
sVSnsFlag
p1026
I0
sVDisplayName
p1027
g52
sVUniFriend
p1028
I0
sVMemberCount
p1029
I0
sVOwnerUin
p1030
I0
sVMemberList
p1031
g50
sVAlias
p1032
g52
sVPYQuanPin
p1033
Vyunnayinruankejiyouxiangongsi
p1034
sVSignature
p1035
V\u4f01\u4e1a\u7f51\u7edc\u54c1\u724c\u5ba3\u4f20\u3001\u7f51\u7edc\u8425\u9500\uff0c\u4f01\u4e1a\u7f51\u7ad9\u8ba2\u5236\u4e0e\u63a8\u5e7f\uff1b\u5fae\u4fe1\u5546\u57ce\u3001\u5fae\u4fe1\u8425\u9500\u3001\u5fae\u4fe1\u516c\u4f17\u5e73\u53f0\uff1bAPP\u5546\u57ce\u53ca\u5176\u4ed6\u8f6f\u4ef6\u5f00\u53d1\uff1b\u4f01\u4e1aCRM\u3001OA\u53caERP\u7cfb\u7edf\u7684\u5f00\u53d1\u4e0e\u642d\u5efa\u7b49\u4e1a\u52a1\u3002
p1036
sVRemarkPYInitial
p1037
g52
sVContactFlag
p1038
I1
sVUin
p1039
I0
sVNickName
p1040
V\u4e91\u5357\u94f6\u8f6f\u79d1\u6280\u6709\u9650\u516c\u53f8
p1041
sVAppAccountFlag
p1042
I0
sVVerifyFlag
p1043
I24
sVRemarkPYQuanPin
p1044
g52
sVHeadImgUrl
p1045
V/cgi-bin/mmwebwx-bin/webwxgeticon?seq=609230006&username=@8d83a0992e379a25a7d0780ce4e4eb1e&skey=@crypt_5c45189f_c3a35d1488a399f1ca95eaea666ff4d9
p1046
sVKeyWord
p1047
Vgh_
p1048
sVProvince
p1049
V\u4e91\u5357
p1050
sVPYInitial
p1051
VYNYRKJYXGS
p1052
sVRemarkName
p1053
g52
sVIsOwner
p1054
I0
sVSex
p1055
I0
sVStarFriend
p1056
I0
sVHideInputBarFlag
p1057
I0
sVChatRoomId
p1058
I0
sVEncryChatRoomId
p1059
g52
sVAttrStatus
p1060
I0
sVStatues
p1061
I0
stp1062
Rp1063
I1
bag34
(g805
g39
(dp1064
VUserName
p1065
V@fafb45a07ef7151827b707f789ae7268
p1066
sVCity
p1067
V\u6606\u660e
p1068
sVSnsFlag
p1069
I0
sVDisplayName
p1070
g52
sVUniFriend
p1071
I0
sVMemberCount
p1072
I0
sVOwnerUin
p1073
I0
sVMemberList
p1074
g50
sVAlias
p1075
g52
sVPYQuanPin
p1076
Vhongxinghaoyunkuajingwuliupingtai
p1077
sVSignature
p1078
V\u7acb\u8db3\u4e91\u5357\uff0c\u9762\u5411\u4e1c\u5357\u4e9a\uff0c\u8f90\u5c04\u56fd\u5185\u7684\u8de8\u5883\u7269\u6d41\u516c\u4f17\u5e73\u53f0\u3002\u81f4\u529b\u642d\u5efa\u6e44\u516c\u6cb3\u6b21\u533a\u57df\u8de8\u5883\u8d27\u8fd0\u8f66\u8f86\u8fd0\u529b\u6c60\uff0c\u6784\u5efa\u8de8\u5883\u7269\u6d41\u4ea7\u4e1a\u751f\u6001\u5708\u3002\u4e3a\u8f66\u4e3b\u548c\u8d27\u4e3b\u63d0\u4f9b\u76f4\u63a5\u7ebf\u4e0a\u5bf9\u63a5\u7684\u529f\u80fd\uff0c\u53ca\u65f6\u83b7\u53d6\u8d27\u6e90\u53ca\u8f66\u6e90,\u5b8c\u6210\u63a5\u5355\u3001\u8fd0\u8f93\u3001\u6536\u8d27\u3001\u6536\u6b3e\u7b49\u8fc7\u7a0b\u3002
p1079
sVRemarkPYInitial
p1080
g52
sVContactFlag
p1081
I3
sVUin
p1082
I0
sVNickName
p1083
V\u5b8f\u661f\u597d\u8fd0\u8de8\u5883\u7269\u6d41\u5e73\u53f0
p1084
sVAppAccountFlag
p1085
I0
sVVerifyFlag
p1086
I24
sVRemarkPYQuanPin
p1087
g52
sVHeadImgUrl
p1088
V/cgi-bin/mmwebwx-bin/webwxgeticon?seq=623474693&username=@fafb45a07ef7151827b707f789ae7268&skey=@crypt_5c45189f_c3a35d1488a399f1ca95eaea666ff4d9
p1089
sVKeyWord
p1090
Vgh_
p1091
sVProvince
p1092
V\u4e91\u5357
p1093
sVPYInitial
p1094
VHXHYKJWLPT
p1095
sVRemarkName
p1096
g52
sVIsOwner
p1097
I0
sVSex
p1098
I0
sVStarFriend
p1099
I0
sVHideInputBarFlag
p1100
I0
sVChatRoomId
p1101
I0
sVEncryChatRoomId
p1102
g52
sVAttrStatus
p1103
I0
sVStatues
p1104
I0
stp1105
Rp1106
I1
batp1107
Rp1108
I1
bssS'loginInfo'
p1109
(dp1110
S'SyncKey'
p1111
(dp1112
VCount
p1113
I4
sVList
p1114
(lp1115
(dp1116
VVal
p1117
I623474840
sVKey
p1118
I1
sa(dp1119
VVal
p1120
I623475339
sVKey
p1121
I2
sa(dp1122
VVal
p1123
I623475297
sVKey
p1124
I3
sa(dp1125
VVal
p1126
I1493703359
sVKey
p1127
I1000
sassS'syncUrl'
p1128
S'https://webpush.wx2.qq.com/cgi-bin/mmwebwx-bin'
p1129
sS'skey'
p1130
V@crypt_5c45189f_c3a35d1488a399f1ca95eaea666ff4d9
p1131
sS'wxuin'
p1132
V3496066292
p1133
sS'synckey'
p1134
S'1_623474840|2_623475339|3_623475297|1000_1493703359'
p1135
sS'url'
p1136
Vhttps://wx2.qq.com/cgi-bin/mmwebwx-bin
p1137
sS'pass_ticket'
p1138
V7Rc0YjU0WzQjOaWQjy21tvlo3zVOIkNaBb4y9V5m4rcJBKIQKhaO6Ay0G3dbklhE
p1139
sS'wxsid'
p1140
VVmcb6brLn/CRVUN3
p1141
sS'InviteStartCount'
p1142
I40
sS'User'
p1143
g34
(g38
g39
(dp1144
g41
g31
sg42
g43
sg44
g43
sg45
I0
sg47
g50
sg51
g52
sg53
g52
sg77
I1
sg55
I0
sg56
I0
sg57
g43
sg58
g43
sg59
g52
sg60
g52
sg61
I0
sg62
I0
sg63
I1
sg64
g43
sg65
I0
sg68
I0
sg66
I1
sg67
I0
sg46
I0
sg69
g43
sg70
g52
sg71
I0
sg72
g73
sg74
g52
sg75
g76
sg54
L3496066292L
sg78
I0
sg79
I0
stp1145
Rp1146
I1
bsS'fileUrl'
p1147
S'https://file.wx2.qq.com/cgi-bin/mmwebwx-bin'
p1148
sS'BaseRequest'
p1149
(dp1150
g54
g1133
sS'Skey'
p1151
g1131
sS'DeviceID'
p1152
g1139
sS'Sid'
p1153
g1141
ssS'deviceid'
p1154
S'e530996090500358'
p1155
ss.