(dp0
S'cookies'
p1
(dp2
S'wxloadtime'
p3
S'1493350060'
p4
sS'webwx_data_ticket'
p5
S'gScw28F0nLxt5q20WGsqAUVR'
p6
sS'wxuin'
p7
S'3496066292'
p8
sS'login_frequency'
p9
S'2'
p10
sS'MM_WX_NOTIFY_STATE'
p11
S'1'
p12
sS'MM_WX_SOUND_STATE'
p13
g12
sS'webwx_auth_ticket'
p14
S'CIsBEKL+g4gBGoABhS2i/tJfTfkYoCqc2/aY0w6l99J9YSfV+YU89JaARX4BuAC1rF0d01PPblwEIZzb29hN61JWaRFf16UK9f3jemIphziLZJcKW5MAShhLtZK0gRvjFcVE7wZxx/QkOpZnfsjJxqeQ7ccGNc9W5sK0KhkeeQmNisLcp6mkH6GR6tI='
p15
sS'last_wxuin'
p16
S'3496066292'
p17
sS'webwxuvid'
p18
S'252a7d16bab750836d081a19cee5685b3733ad8eb7110e239f9c7d02a457e8836e25ab2c904e659c3441d47aedb09587'
p19
sS'wxpluginkey'
p20
S'1493346705_expired'
p21
sS'wxsid'
p22
S'mZBpjGzKTO/pEUNL'
p23
sS'mm_lang'
p24
S'zh_CN'
p25
ssS'version'
p26
S'1.3.5'
p27
sS'storage'
p28
(dp29
S'userName'
p30
V@477024fc7784a637bd4a1b5c6895fb7a1c4015150253a589fca932b7d303a11a
p31
sS'lastInputUserName'
p32
NsS'memberList'
p33
ccopy_reg
_reconstructor
p34
(citchat.storage.templates
ContactList
p35
c__builtin__
list
p36
(lp37
g34
(citchat.storage.templates
User
p38
c__builtin__
dict
p39
(dp40
S'UserName'
p41
g31
sS'City'
p42
S''
p43
sS'DisplayName'
p44
g43
sS'UniFriend'
p45
I0
sS'OwnerUin'
p46
I0
sS'MemberList'
p47
g34
(g35
g36
(lp48
tp49
Rp50
I1
bsS'PYQuanPin'
p51
V
p52
sS'RemarkPYInitial'
p53
g52
sS'Uin'
p54
L3496066292L
sS'AppAccountFlag'
p55
I0
sS'VerifyFlag'
p56
I0
sS'Province'
p57
g43
sS'KeyWord'
p58
g43
sS'RemarkName'
p59
g52
sS'PYInitial'
p60
g52
sS'ChatRoomId'
p61
I0
sS'HideInputBarFlag'
p62
I0
sVHeadImgFlag
p63
I1
sS'EncryChatRoomId'
p64
g43
sS'AttrStatus'
p65
I0
sS'SnsFlag'
p66
I1
sS'MemberCount'
p67
I0
sVWebWxPluginSwitch
p68
I0
sS'Alias'
p69
g43
sS'Signature'
p70
g52
sS'ContactFlag'
p71
I0
sS'NickName'
p72
V\u5c0f\u5b89
p73
sS'RemarkPYQuanPin'
p74
g52
sS'HeadImgUrl'
p75
V/cgi-bin/mmwebwx-bin/webwxgeticon?seq=216604363&username=@477024fc7784a637bd4a1b5c6895fb7a1c4015150253a589fca932b7d303a11a&skey=@crypt_5c45189f_0419d88fe1873afd6e42bcfa8c38a7ed
p76
sS'Sex'
p77
I1
sS'StarFriend'
p78
I0
sS'Statues'
p79
I0
stp80
Rp81
I1
bag34
(g38
g39
(dp82
VUserName
p83
V@3d66fd3d27583995b9236da7d92efac6
p84
sVCity
p85
V\u6606\u660e
p86
sVSnsFlag
p87
I17
sVDisplayName
p88
g52
sVUniFriend
p89
I0
sVMemberCount
p90
I0
sVOwnerUin
p91
I0
sVMemberList
p92
g50
sVAlias
p93
g52
sVPYQuanPin
p94
Vzongan
p95
sVSignature
p96
g52
sVRemarkPYInitial
p97
g52
sVContactFlag
p98
I3
sVUin
p99
I0
sVNickName
p100
V\u5b97\u5b89
p101
sVAppAccountFlag
p102
I0
sVVerifyFlag
p103
I0
sVRemarkPYQuanPin
p104
g52
sVHeadImgUrl
p105
V/cgi-bin/mmwebwx-bin/webwxgeticon?seq=611350015&username=@3d66fd3d27583995b9236da7d92efac6&skey=@crypt_5c45189f_0419d88fe1873afd6e42bcfa8c38a7ed
p106
sVKeyWord
p107
Vsiw
p108
sVProvince
p109
V\u4e91\u5357
p110
sVPYInitial
p111
VZA
p112
sVRemarkName
p113
g52
sVIsOwner
p114
I0
sVSex
p115
I1
sVStarFriend
p116
I0
sVHideInputBarFlag
p117
I0
sVChatRoomId
p118
I0
sVEncryChatRoomId
p119
g52
sVAttrStatus
p120
I127095
sVStatues
p121
I0
stp122
Rp123
I1
bag34
(g38
g39
(dp124
VUserName
p125
V@f17a8342e979ee9bcbd83780cd920e84dd6091f641cab9bb795fc1fae43605c6
p126
sVCity
p127
g52
sVSnsFlag
p128
I16
sVDisplayName
p129
g52
sVUniFriend
p130
I0
sVMemberCount
p131
I0
sVOwnerUin
p132
I0
sVMemberList
p133
g50
sVAlias
p134
g52
sVPYQuanPin
p135
Vzongfajun
p136
sVSignature
p137
g52
sVRemarkPYInitial
p138
g52
sVContactFlag
p139
I3
sVUin
p140
I0
sVNickName
p141
V\u5b97\u53d1\u519b
p142
sVAppAccountFlag
p143
I0
sVVerifyFlag
p144
I0
sVRemarkPYQuanPin
p145
g52
sVHeadImgUrl
p146
V/cgi-bin/mmwebwx-bin/webwxgeticon?seq=610250005&username=@f17a8342e979ee9bcbd83780cd920e84dd6091f641cab9bb795fc1fae43605c6&skey=@crypt_5c45189f_0419d88fe1873afd6e42bcfa8c38a7ed
p147
sVKeyWord
p148
g52
sVProvince
p149
g52
sVPYInitial
p150
VZFJ
p151
sVRemarkName
p152
g52
sVIsOwner
p153
I0
sVSex
p154
I0
sVStarFriend
p155
I0
sVHideInputBarFlag
p156
I0
sVChatRoomId
p157
I0
sVEncryChatRoomId
p158
g52
sVAttrStatus
p159
I4133
sVStatues
p160
I0
stp161
Rp162
I1
bag34
(g38
g39
(dp163
VUserName
p164
V@5e565e15e548d741b3ee7afa8bb477a3881a40cf371af1f9ea7505581eeee59c
p165
sVCity
p166
g52
sVSnsFlag
p167
I17
sVDisplayName
p168
g52
sVUniFriend
p169
I0
sVMemberCount
p170
I0
sVOwnerUin
p171
I0
sVMemberList
p172
g50
sVAlias
p173
g52
sVPYQuanPin
p174
Vniannian
p175
sVSignature
p176
g52
sVRemarkPYInitial
p177
g52
sVContactFlag
p178
I3
sVUin
p179
I0
sVNickName
p180
V\u5e74\u5e74
p181
sVAppAccountFlag
p182
I0
sVVerifyFlag
p183
I0
sVRemarkPYQuanPin
p184
g52
sVHeadImgUrl
p185
V/cgi-bin/mmwebwx-bin/webwxgeticon?seq=612140030&username=@5e565e15e548d741b3ee7afa8bb477a3881a40cf371af1f9ea7505581eeee59c&skey=@crypt_5c45189f_0419d88fe1873afd6e42bcfa8c38a7ed
p186
sVKeyWord
p187
g52
sVProvince
p188
VWicklow
p189
sVPYInitial
p190
VNN
p191
sVRemarkName
p192
g52
sVIsOwner
p193
I0
sVSex
p194
I2
sVStarFriend
p195
I0
sVHideInputBarFlag
p196
I0
sVChatRoomId
p197
I0
sVEncryChatRoomId
p198
g52
sVAttrStatus
p199
I233509
sVStatues
p200
I0
stp201
Rp202
I1
bag34
(g38
g39
(dp203
VUserName
p204
V@51dd48cc0e9b908d5043922033a47436adbcc4cff004a9d86ca8148274f27583
p205
sVCity
p206
V\u6606\u660e
p207
sVSnsFlag
p208
I17
sVDisplayName
p209
g52
sVUniFriend
p210
I0
sVMemberCount
p211
I0
sVOwnerUin
p212
I0
sVMemberList
p213
g50
sVAlias
p214
g52
sVPYQuanPin
p215
Vzhuimeng
p216
sVSignature
p217
g52
sVRemarkPYInitial
p218
g52
sVContactFlag
p219
I3
sVUin
p220
I0
sVNickName
p221
V\u8ffd\u68a6
p222
sVAppAccountFlag
p223
I0
sVVerifyFlag
p224
I0
sVRemarkPYQuanPin
p225
g52
sVHeadImgUrl
p226
V/cgi-bin/mmwebwx-bin/webwxgeticon?seq=614850104&username=@51dd48cc0e9b908d5043922033a47436adbcc4cff004a9d86ca8148274f27583&skey=@crypt_5c45189f_0419d88fe1873afd6e42bcfa8c38a7ed
p227
sVKeyWord
p228
g52
sVProvince
p229
V\u4e91\u5357
p230
sVPYInitial
p231
VZM
p232
sVRemarkName
p233
g52
sVIsOwner
p234
I0
sVSex
p235
I1
sVStarFriend
p236
I0
sVHideInputBarFlag
p237
I0
sVChatRoomId
p238
I0
sVEncryChatRoomId
p239
g52
sVAttrStatus
p240
I167973
sVStatues
p241
I0
stp242
Rp243
I1
bag34
(g38
g39
(dp244
VUserName
p245
V@ba982b2ccfe2337eaf0917e2c98a9951
p246
sVCity
p247
V\u66f2\u9756
p248
sVSnsFlag
p249
I17
sVDisplayName
p250
g52
sVUniFriend
p251
I0
sVMemberCount
p252
I0
sVOwnerUin
p253
I0
sVMemberList
p254
g50
sVAlias
p255
g52
sVPYQuanPin
p256
Vzonglingxian
p257
sVSignature
p258
V\u7ea2\u989c\u6613\u788e\u4e0d\u5982\u626e\u94dc\u5899\u94c1\u58c1
p259
sVRemarkPYInitial
p260
g52
sVContactFlag
p261
I3
sVUin
p262
I0
sVNickName
p263
V\u5b97\u73b2\u4ed9
p264
sVAppAccountFlag
p265
I0
sVVerifyFlag
p266
I0
sVRemarkPYQuanPin
p267
g52
sVHeadImgUrl
p268
V/cgi-bin/mmwebwx-bin/webwxgeticon?seq=617220003&username=@ba982b2ccfe2337eaf0917e2c98a9951&skey=@crypt_5c45189f_0419d88fe1873afd6e42bcfa8c38a7ed
p269
sVKeyWord
p270
Vzon
p271
sVProvince
p272
V\u4e91\u5357
p273
sVPYInitial
p274
VZLX
p275
sVRemarkName
p276
g52
sVIsOwner
p277
I0
sVSex
p278
I2
sVStarFriend
p279
I0
sVHideInputBarFlag
p280
I0
sVChatRoomId
p281
I0
sVEncryChatRoomId
p282
g52
sVAttrStatus
p283
I1127
sVStatues
p284
I0
stp285
Rp286
I1
bag34
(g38
g39
(dp287
VUserName
p288
V@bf844afa9a39f177f3a46d1807242804
p289
sVCity
p290
V\u6606\u660e
p291
sVSnsFlag
p292
I17
sVDisplayName
p293
g52
sVUniFriend
p294
I0
sVMemberCount
p295
I0
sVOwnerUin
p296
I0
sVMemberList
p297
g50
sVAlias
p298
g52
sVPYQuanPin
p299
Vtangrongbin
p300
sVSignature
p301
Vlove is a touch and yet not a touch.
p302
sVRemarkPYInitial
p303
g52
sVContactFlag
p304
I3
sVUin
p305
I0
sVNickName
p306
V\u5510\u8363\u658c
p307
sVAppAccountFlag
p308
I0
sVVerifyFlag
p309
I0
sVRemarkPYQuanPin
p310
g52
sVHeadImgUrl
p311
V/cgi-bin/mmwebwx-bin/webwxgeticon?seq=619730260&username=@bf844afa9a39f177f3a46d1807242804&skey=@crypt_5c45189f_0419d88fe1873afd6e42bcfa8c38a7ed
p312
sVKeyWord
p313
Vtrb
p314
sVProvince
p315
V\u4e91\u5357
p316
sVPYInitial
p317
VTRB
p318
sVRemarkName
p319
g52
sVIsOwner
p320
I0
sVSex
p321
I1
sVStarFriend
p322
I0
sVHideInputBarFlag
p323
I0
sVChatRoomId
p324
I0
sVEncryChatRoomId
p325
g52
sVAttrStatus
p326
I33784231
sVStatues
p327
I0
stp328
Rp329
I1
bag34
(g38
g39
(dp330
VUserName
p331
V@a4c0132699fbf1210ac4a53fe6c168e154b2d0976b0b3c60545141147c049981
p332
sVCity
p333
V\u66f2\u9756
p334
sVSnsFlag
p335
I17
sVDisplayName
p336
g52
sVUniFriend
p337
I0
sVMemberCount
p338
I0
sVOwnerUin
p339
I0
sVMemberList
p340
g50
sVAlias
p341
g52
sVPYQuanPin
p342
VSunshine
p343
sVSignature
p344
V\u52ff\u671f\u671b\uff0c\u4e0d\u5931\u671b
p345
sVRemarkPYInitial
p346
g52
sVContactFlag
p347
I1
sVUin
p348
I0
sVNickName
p349
VSunshine
p350
sVAppAccountFlag
p351
I0
sVVerifyFlag
p352
I0
sVRemarkPYQuanPin
p353
g52
sVHeadImgUrl
p354
V/cgi-bin/mmwebwx-bin/webwxgeticon?seq=623473977&username=@a4c0132699fbf1210ac4a53fe6c168e154b2d0976b0b3c60545141147c049981&skey=@crypt_5c45189f_0419d88fe1873afd6e42bcfa8c38a7ed
p355
sVKeyWord
p356
g52
sVProvince
p357
V\u4e91\u5357
p358
sVPYInitial
p359
VSUNSHINE
p360
sVRemarkName
p361
g52
sVIsOwner
p362
I0
sVSex
p363
I2
sVStarFriend
p364
I0
sVHideInputBarFlag
p365
I0
sVChatRoomId
p366
I0
sVEncryChatRoomId
p367
g52
sVAttrStatus
p368
I33656957
sVStatues
p369
I0
stp370
Rp371
I1
bag34
(g38
g39
(dp372
VUserName
p373
V@de50eeed04f0db7397b18574d41f7083ce9c01fdc4173b0b60880d09a0a1b841
p374
sVCity
p375
V\u66f2\u9756
p376
sVSnsFlag
p377
I1
sVDisplayName
p378
g52
sVUniFriend
p379
I0
sVMemberCount
p380
I0
sVOwnerUin
p381
I0
sVMemberList
p382
g50
sVAlias
p383
g52
sVPYQuanPin
p384
Vzxiaoxue
p385
sVSignature
p386
V\u5fc3\u5982\u6b62\u6c34
p387
sVRemarkPYInitial
p388
g52
sVContactFlag
p389
I3
sVUin
p390
I0
sVNickName
p391
Vz\u5c0f\u5b66
p392
sVAppAccountFlag
p393
I0
sVVerifyFlag
p394
I0
sVRemarkPYQuanPin
p395
g52
sVHeadImgUrl
p396
V/cgi-bin/mmwebwx-bin/webwxgeticon?seq=623470052&username=@de50eeed04f0db7397b18574d41f7083ce9c01fdc4173b0b60880d09a0a1b841&skey=@crypt_5c45189f_0419d88fe1873afd6e42bcfa8c38a7ed
p397
sVKeyWord
p398
g52
sVProvince
p399
V\u4e91\u5357
p400
sVPYInitial
p401
VZXX
p402
sVRemarkName
p403
g52
sVIsOwner
p404
I0
sVSex
p405
I1
sVStarFriend
p406
I0
sVHideInputBarFlag
p407
I0
sVChatRoomId
p408
I0
sVEncryChatRoomId
p409
g52
sVAttrStatus
p410
I4133
sVStatues
p411
I0
stp412
Rp413
I1
bag34
(g38
g39
(dp414
VUserName
p415
V@45581b5127c723d1c1e4fee0be4945da0469b80a9dbf299265649c5968f51cae
p416
sVCity
p417
V\u6606\u660e
p418
sVSnsFlag
p419
I17
sVDisplayName
p420
g52
sVUniFriend
p421
I0
sVMemberCount
p422
I0
sVOwnerUin
p423
I0
sVMemberList
p424
g50
sVAlias
p425
g52
sVPYQuanPin
p426
Vlongqiongzhangchengchanglonghuahui
p427
sVSignature
p428
V\u4ee5\u82b1\u4e3a\u5a92\uff0c\u4ea4\u5929\u4e0b\u670b\u53cb\u000a\u7ec4\u4e0a\u7b49\u82b1\uff0c\u8bda\u5bf9\u65b0\u8001\u5ba2\u6237\u000a\u6c42\u7f18\u5206\uff0c\u751f\u610f\u5e38\u5728
p429
sVRemarkPYInitial
p430
g52
sVContactFlag
p431
I65539
sVUin
p432
I0
sVNickName
p433
V\u9f99\u743c\u7ae0 (\u665f\u660c\u9f99\u82b1\u5349)
p434
sVAppAccountFlag
p435
I0
sVVerifyFlag
p436
I0
sVRemarkPYQuanPin
p437
g52
sVHeadImgUrl
p438
V/cgi-bin/mmwebwx-bin/webwxgeticon?seq=614850054&username=@45581b5127c723d1c1e4fee0be4945da0469b80a9dbf299265649c5968f51cae&skey=@crypt_5c45189f_0419d88fe1873afd6e42bcfa8c38a7ed
p439
sVKeyWord
p440
g52
sVProvince
p441
V\u4e91\u5357
p442
sVPYInitial
p443
VLQZCCLHH
p444
sVRemarkName
p445
g52
sVIsOwner
p446
I0
sVSex
p447
I1
sVStarFriend
p448
I0
sVHideInputBarFlag
p449
I0
sVChatRoomId
p450
I0
sVEncryChatRoomId
p451
g52
sVAttrStatus
p452
I135205
sVStatues
p453
I0
stp454
Rp455
I1
bag34
(g38
g39
(dp456
VUserName
p457
V@1da0e0fb9287cd41a85119a85cebe7bc24bb22b03455667fc601597c21b67097
p458
sVCity
p459
g52
sVSnsFlag
p460
I17
sVDisplayName
p461
g52
sVUniFriend
p462
I0
sVMemberCount
p463
I0
sVOwnerUin
p464
I0
sVMemberList
p465
g50
sVAlias
p466
g52
sVPYQuanPin
p467
Vfoyuan
p468
sVSignature
p469
g52
sVRemarkPYInitial
p470
g52
sVContactFlag
p471
I65539
sVUin
p472
I0
sVNickName
p473
V\u4f5b\u7f18
p474
sVAppAccountFlag
p475
I0
sVVerifyFlag
p476
I0
sVRemarkPYQuanPin
p477
g52
sVHeadImgUrl
p478
V/cgi-bin/mmwebwx-bin/webwxgeticon?seq=619730491&username=@1da0e0fb9287cd41a85119a85cebe7bc24bb22b03455667fc601597c21b67097&skey=@crypt_5c45189f_0419d88fe1873afd6e42bcfa8c38a7ed
p479
sVKeyWord
p480
g52
sVProvince
p481
g52
sVPYInitial
p482
VFY
p483
sVRemarkName
p484
g52
sVIsOwner
p485
I0
sVSex
p486
I1
sVStarFriend
p487
I0
sVHideInputBarFlag
p488
I0
sVChatRoomId
p489
I0
sVEncryChatRoomId
p490
g52
sVAttrStatus
p491
I4261
sVStatues
p492
I0
stp493
Rp494
I1
bag34
(g38
g39
(dp495
VUserName
p496
V@b555e56b79e3d09a613b0ec44d729bab785876baf1986c95da1f37f4ae6ec00e
p497
sVCity
p498
V\u66f2\u9756
p499
sVSnsFlag
p500
I17
sVDisplayName
p501
g52
sVUniFriend
p502
I0
sVMemberCount
p503
I0
sVOwnerUin
p504
I0
sVMemberList
p505
g50
sVAlias
p506
g52
sVPYQuanPin
p507
Vheidebaidehuidespanclassemojiemoji1f340span
p508
sVSignature
p509
V\u82b1\u5e97\u5173\u4e86\uff0c\u82b1\u5f00\u4e86\u3002
p510
sVRemarkPYInitial
p511
g52
sVContactFlag
p512
I1
sVUin
p513
I0
sVNickName
p514
V\u9ed1\u7684\u767d\u7684\u7070\u7684\U0001f340
p515
sVAppAccountFlag
p516
I0
sVVerifyFlag
p517
I0
sVRemarkPYQuanPin
p518
g52
sVHeadImgUrl
p519
V/cgi-bin/mmwebwx-bin/webwxgeticon?seq=623474666&username=@b555e56b79e3d09a613b0ec44d729bab785876baf1986c95da1f37f4ae6ec00e&skey=@crypt_5c45189f_0419d88fe1873afd6e42bcfa8c38a7ed
p520
sVKeyWord
p521
g52
sVProvince
p522
V\u4e91\u5357
p523
sVPYInitial
p524
VHDBDHDSPANCLASSEMOJIEMOJI1F340SPAN
p525
sVRemarkName
p526
g52
sVIsOwner
p527
I0
sVSex
p528
I2
sVStarFriend
p529
I0
sVHideInputBarFlag
p530
I0
sVChatRoomId
p531
I0
sVEncryChatRoomId
p532
g52
sVAttrStatus
p533
I16897063
sVStatues
p534
I0
stp535
Rp536
I1
bag34
(g38
g39
(dp537
VUserName
p538
V@4f56f807b6620f57d64a76ccce82c380
p539
sVCity
p540
V\u6606\u660e
p541
sVSnsFlag
p542
I17
sVDisplayName
p543
g52
sVUniFriend
p544
I0
sVMemberCount
p545
I0
sVOwnerUin
p546
I0
sVMemberList
p547
g50
sVAlias
p548
g52
sVPYQuanPin
p549
VAAtouyingjibingmuyinxiang18788497301bai
p550
sVSignature
p551
V\u6295\u5f71\u673a\u3001\u5c4f\u5e55\u3001\u97f3\u54cd2017\u73b0\u8d27\u6279\u53d1\uff01\u79d2\u53d1\uff01\u79d2\u9001\uff01\u7968\u88d518788497301
p552
sVRemarkPYInitial
p553
g52
sVContactFlag
p554
I65539
sVUin
p555
I0
sVNickName
p556
VAA\u6295\u5f71\u673a\u5c4f\u5e55\u97f3\u54cd18788497301\u767d
p557
sVAppAccountFlag
p558
I0
sVVerifyFlag
p559
I0
sVRemarkPYQuanPin
p560
g52
sVHeadImgUrl
p561
V/cgi-bin/mmwebwx-bin/webwxgeticon?seq=623474715&username=@4f56f807b6620f57d64a76ccce82c380&skey=@crypt_5c45189f_0419d88fe1873afd6e42bcfa8c38a7ed
p562
sVKeyWord
p563
Vbai
p564
sVProvince
p565
V\u4e91\u5357
p566
sVPYInitial
p567
VAATYJBMYX18788497301B
p568
sVRemarkName
p569
g52
sVIsOwner
p570
I0
sVSex
p571
I1
sVStarFriend
p572
I0
sVHideInputBarFlag
p573
I0
sVChatRoomId
p574
I0
sVEncryChatRoomId
p575
g52
sVAttrStatus
p576
L2151780453L
sVStatues
p577
I0
stp578
Rp579
I1
bag34
(g38
g39
(dp580
VUserName
p581
V@ad08ed139dc9ca8e9d8a8850de42500d
p582
sVCity
p583
g52
sVSnsFlag
p584
I49
sVDisplayName
p585
g52
sVUniFriend
p586
I0
sVMemberCount
p587
I0
sVOwnerUin
p588
I0
sVMemberList
p589
g50
sVAlias
p590
g52
sVPYQuanPin
p591
Vyushushu
p592
sVSignature
p593
g52
sVRemarkPYInitial
p594
g52
sVContactFlag
p595
I3
sVUin
p596
I0
sVNickName
p597
V\u7389\u8700\u9ecd
p598
sVAppAccountFlag
p599
I0
sVVerifyFlag
p600
I0
sVRemarkPYQuanPin
p601
g52
sVHeadImgUrl
p602
V/cgi-bin/mmwebwx-bin/webwxgeticon?seq=623474677&username=@ad08ed139dc9ca8e9d8a8850de42500d&skey=@crypt_5c45189f_0419d88fe1873afd6e42bcfa8c38a7ed
p603
sVKeyWord
p604
Vyup
p605
sVProvince
p606
g52
sVPYInitial
p607
VYSS
p608
sVRemarkName
p609
g52
sVIsOwner
p610
I0
sVSex
p611
I2
sVStarFriend
p612
I0
sVHideInputBarFlag
p613
I0
sVChatRoomId
p614
I0
sVEncryChatRoomId
p615
g52
sVAttrStatus
p616
I83173
sVStatues
p617
I0
stp618
Rp619
I1
bag34
(g38
g39
(dp620
VUserName
p621
V@a5bb19aa2462612775750ca3d98a2ba1710fe59e1217db6cc25866086a01c67a
p622
sVCity
p623
V\u6606\u660e
p624
sVSnsFlag
p625
I17
sVDisplayName
p626
g52
sVUniFriend
p627
I0
sVMemberCount
p628
I0
sVOwnerUin
p629
I0
sVMemberList
p630
g50
sVAlias
p631
g52
sVPYQuanPin
p632
VAispanclassemojiemoji1f340span
p633
sVSignature
p634
V<span class="emoji emoji1f33e"></span>
p635
sVRemarkPYInitial
p636
g52
sVContactFlag
p637
I3
sVUin
p638
I0
sVNickName
p639
VAi~\U0001f340
p640
sVAppAccountFlag
p641
I0
sVVerifyFlag
p642
I0
sVRemarkPYQuanPin
p643
g52
sVHeadImgUrl
p644
V/cgi-bin/mmwebwx-bin/webwxgeticon?seq=623474792&username=@a5bb19aa2462612775750ca3d98a2ba1710fe59e1217db6cc25866086a01c67a&skey=@crypt_5c45189f_0419d88fe1873afd6e42bcfa8c38a7ed
p645
sVKeyWord
p646
g52
sVProvince
p647
V\u4e91\u5357
p648
sVPYInitial
p649
VAISPANCLASSEMOJIEMOJI1F340SPAN
p650
sVRemarkName
p651
g52
sVIsOwner
p652
I0
sVSex
p653
I2
sVStarFriend
p654
I0
sVHideInputBarFlag
p655
I0
sVChatRoomId
p656
I0
sVEncryChatRoomId
p657
g52
sVAttrStatus
p658
I102437
sVStatues
p659
I0
stp660
Rp661
I1
bag34
(g38
g39
(dp662
VUserName
p663
V@0e8cdd0b0139a15dcd549572c6a2cba8
p664
sVCity
p665
V\u6606\u660e
p666
sVSnsFlag
p667
I17
sVDisplayName
p668
g52
sVUniFriend
p669
I0
sVMemberCount
p670
I0
sVOwnerUin
p671
I0
sVMemberList
p672
g50
sVAlias
p673
g52
sVPYQuanPin
p674
Vguyue
p675
sVSignature
p676
V<span class="emoji emoji1f343"></span>\u65e5\u5b50\u5c31\u8981\u50cf\u82b1\u513f\u90a3\u822c\u707f\u70c2<span class="emoji emoji1f338"></span><span class="emoji emoji1f33b"></span>
p677
sVRemarkPYInitial
p678
g52
sVContactFlag
p679
I1
sVUin
p680
I0
sVNickName
p681
V\u53e4\u6708
p682
sVAppAccountFlag
p683
I0
sVVerifyFlag
p684
I0
sVRemarkPYQuanPin
p685
g52
sVHeadImgUrl
p686
V/cgi-bin/mmwebwx-bin/webwxgeticon?seq=623474952&username=@0e8cdd0b0139a15dcd549572c6a2cba8&skey=@crypt_5c45189f_0419d88fe1873afd6e42bcfa8c38a7ed
p687
sVKeyWord
p688
Vhux
p689
sVProvince
p690
V\u4e91\u5357
p691
sVPYInitial
p692
VGY
p693
sVRemarkName
p694
g52
sVIsOwner
p695
I0
sVSex
p696
I2
sVStarFriend
p697
I0
sVHideInputBarFlag
p698
I0
sVChatRoomId
p699
I0
sVEncryChatRoomId
p700
g52
sVAttrStatus
p701
I16881893
sVStatues
p702
I0
stp703
Rp704
I1
batp705
Rp706
I1
bsS'chatroomList'
p707
g34
(g35
g36
(lp708
g34
(citchat.storage.templates
Chatroom
p709
g39
(dp710
VUserName
p711
V@@4843bf222f68e9af53315ac82e9e62532a2954220078cf9141ce5b73e405540a
p712
sVCity
p713
g52
sVDisplayName
p714
g52
sVUniFriend
p715
I0
sS'Self'
p716
g34
(g38
g39
(dp717
g41
g31
sg42
g43
sg44
g43
sg45
I0
sg46
I0
sg47
g34
(g35
g36
(lp718
tp719
Rp720
I1
bsg51
g52
sg53
g52
sg54
L3496066292L
sg55
I0
sg56
I0
sg57
g43
sg58
g43
sg59
g52
sg60
g52
sg61
I0
sg62
I0
sg63
I1
sg64
g43
sg65
I0
sg66
I1
sg67
I0
sg68
I0
sg69
g43
sg70
g52
sg71
I0
sg72
g73
sg74
g52
sg75
g76
sg77
I1
sg78
I0
sg79
I0
stp721
Rp722
I1
bsVMemberList
p723
g34
(g35
g36
(lp724
tp725
Rp726
I1
bsVPYQuanPin
p727
g52
sVRemarkPYInitial
p728
g52
sVSex
p729
I0
sVAppAccountFlag
p730
I0
sVVerifyFlag
p731
I0
sVProvince
p732
g52
sVKeyWord
p733
g52
sVRemarkName
p734
g52
sVPYInitial
p735
g52
sVIsOwner
p736
I1
sVChatRoomId
p737
I0
sVHideInputBarFlag
p738
I0
sVEncryChatRoomId
p739
g52
sVAttrStatus
p740
I0
sVSnsFlag
p741
I0
sVMemberCount
p742
I2
sVOwnerUin
p743
I0
sVAlias
p744
g52
sS'IsAdmin'
p745
NsVSignature
p746
g52
sVContactFlag
p747
I0
sVNickName
p748
VRobot
p749
sVRemarkPYQuanPin
p750
g52
sVHeadImgUrl
p751
V/cgi-bin/mmwebwx-bin/webwxgetheadimg?seq=0&username=@@4843bf222f68e9af53315ac82e9e62532a2954220078cf9141ce5b73e405540a&skey=@crypt_5c45189f_0419d88fe1873afd6e42bcfa8c38a7ed
p752
sVUin
p753
I0
sVStarFriend
p754
I0
sVStatues
p755
I1
stp756
Rp757
I1
bag34
(g709
g39
(dp758
VUserName
p759
V@@c63a7216f459cd66a018c2ff20cc70c70c21216a3d613943f70f996ef306f0ee
p760
sVCity
p761
g52
sVDisplayName
p762
g52
sVUniFriend
p763
I0
sg716
g34
(g38
g39
(dp764
g41
g31
sg42
g43
sg44
g43
sg45
I0
sg46
I0
sg47
g34
(g35
g36
(lp765
tp766
Rp767
I1
bsg51
g52
sg53
g52
sg54
L3496066292L
sg55
I0
sg56
I0
sg57
g43
sg58
g43
sg59
g52
sg60
g52
sg61
I0
sg62
I0
sg63
I1
sg64
g43
sg65
I0
sg66
I1
sg67
I0
sg68
I0
sg69
g43
sg70
g52
sg71
I0
sg72
g73
sg74
g52
sg75
g76
sg77
I1
sg78
I0
sg79
I0
stp768
Rp769
I1
bsVMemberList
p770
g34
(g35
g36
(lp771
tp772
Rp773
I1
bsVPYQuanPin
p774
g52
sVRemarkPYInitial
p775
g52
sVSex
p776
I0
sVAppAccountFlag
p777
I0
sVVerifyFlag
p778
I0
sVProvince
p779
g52
sVKeyWord
p780
g52
sVRemarkName
p781
g52
sVPYInitial
p782
g52
sVIsOwner
p783
I0
sVChatRoomId
p784
I0
sVHideInputBarFlag
p785
I0
sVEncryChatRoomId
p786
g52
sVAttrStatus
p787
I0
sVSnsFlag
p788
I0
sVMemberCount
p789
I3
sVOwnerUin
p790
I0
sVAlias
p791
g52
sg745
NsVSignature
p792
g52
sVContactFlag
p793
I0
sVNickName
p794
V\u5b97\u5b89,\u54ce\u5466\u5582,\u5c0f\u5b89
p795
sVRemarkPYQuanPin
p796
g52
sVHeadImgUrl
p797
V/cgi-bin/mmwebwx-bin/webwxgetheadimg?seq=0&username=@@c63a7216f459cd66a018c2ff20cc70c70c21216a3d613943f70f996ef306f0ee&skey=@crypt_5c45189f_0419d88fe1873afd6e42bcfa8c38a7ed
p798
sVUin
p799
I0
sVStarFriend
p800
I0
sVStatues
p801
I1
stp802
Rp803
I1
batp804
Rp805
I1
bsS'nickName'
p806
g73
sS'mpList'
p807
g34
(g35
g36
(lp808
g34
(citchat.storage.templates
MassivePlatform
p809
g39
(dp810
VUserName
p811
V@25db53b1c9ba5591376afa2ea71d2533
p812
sVCity
p813
V\u6d77\u6dc0
p814
sVSnsFlag
p815
I0
sVDisplayName
p816
g52
sVUniFriend
p817
I0
sVMemberCount
p818
I0
sVOwnerUin
p819
I0
sVMemberList
p820
g50
sVAlias
p821
g52
sVPYQuanPin
p822
Vqichezhijia
p823
sVSignature
p824
V\u60a8\u8eab\u8fb9\u7684\u61c2\u8f66\u5bb6\u4eba\uff0c\u7ed9\u60a8\u5e26\u6765\u4e70\u8f66\u7528\u8f66\u53ca\u8f66\u751f\u6d3b\u7684\u5168\u7a0b\u670d\u52a1\uff0c\u503c\u5f97\u4fe1\u8d56\u7684\u4e92\u8054\u7f51\u6c7d\u8f66\u8425\u9500\u5e73\u53f0\u3002
p825
sVRemarkPYInitial
p826
g52
sVContactFlag
p827
I3
sVUin
p828
I0
sVNickName
p829
V\u6c7d\u8f66\u4e4b\u5bb6
p830
sVAppAccountFlag
p831
I0
sVVerifyFlag
p832
I24
sVRemarkPYQuanPin
p833
g52
sVHeadImgUrl
p834
V/cgi-bin/mmwebwx-bin/webwxgeticon?seq=619730103&username=@25db53b1c9ba5591376afa2ea71d2533&skey=@crypt_5c45189f_0419d88fe1873afd6e42bcfa8c38a7ed
p835
sVKeyWord
p836
Vgh_
p837
sVProvince
p838
V\u5317\u4eac
p839
sVPYInitial
p840
VQCZJ
p841
sVRemarkName
p842
g52
sVIsOwner
p843
I0
sVSex
p844
I0
sVStarFriend
p845
I0
sVHideInputBarFlag
p846
I0
sVChatRoomId
p847
I0
sVEncryChatRoomId
p848
g52
sVAttrStatus
p849
I0
sVStatues
p850
I0
stp851
Rp852
I1
bag34
(g809
g39
(dp853
VUserName
p854
V@601fd605b2958dbdde5c35c4db524f27
p855
sVCity
p856
V\u6606\u660e
p857
sVSnsFlag
p858
I0
sVDisplayName
p859
g52
sVUniFriend
p860
I0
sVMemberCount
p861
I0
sVOwnerUin
p862
I0
sVMemberList
p863
g50
sVAlias
p864
g52
sVPYQuanPin
p865
Vyunnaheyuzhuangshi
p866
sVSignature
p867
V\u4e3b\u8981\u627f\u63a5\uff1a\u5bb6\u5c45\u3001\u5546\u4e1a\u5e97\u94fa\uff08\u8fde\u9501\u5e97\uff09\u3001\u529e\u516c\u3001\u9152\u5e97\u3001\u522b\u5885\u7b49\u88c5\u9970\u5de5\u7a0b\u65bd\u5de5\uff0c\u751f\u4ea7\u5b9a\u5236\u5404\u7c7b\u5c55\u5385\u5c55\u67dc\u3001\u4e13\u67dc\uff08\u70e4\u6f06\u3001\u73bb\u7483\u3001\u5b9e\u6728\u7b49\u6210\u54c1\u67dc\uff09\uff0c\u516c\u53f8\u4ee5\u8bbe\u8ba1\u4e3a\u6838\u5fc3\u4e0d\u65ad\u5bfb\u6c42\u88c5\u9970\u884c\u4e1a\u7684\u79c1\u5bfc\u6027\u3001\u81ea\u6211\u4e2a\u6027\u98ce\u683c\u521b\u4f5c\u7075\u9b42\u4e3a\u5ba2\u6237\u8bbe\u8ba1\u51fa\u60a8\u7684\u7406\u5ff5\u9700\u6c42\u3002
p868
sVRemarkPYInitial
p869
g52
sVContactFlag
p870
I3
sVUin
p871
I0
sVNickName
p872
V\u4e91\u5357\u9e64\u7389\u88c5\u9970
p873
sVAppAccountFlag
p874
I0
sVVerifyFlag
p875
I8
sVRemarkPYQuanPin
p876
g52
sVHeadImgUrl
p877
V/cgi-bin/mmwebwx-bin/webwxgeticon?seq=606910278&username=@601fd605b2958dbdde5c35c4db524f27&skey=@crypt_5c45189f_0419d88fe1873afd6e42bcfa8c38a7ed
p878
sVKeyWord
p879
Vgh_
p880
sVProvince
p881
V\u4e91\u5357
p882
sVPYInitial
p883
VYNHYZS
p884
sVRemarkName
p885
g52
sVIsOwner
p886
I0
sVSex
p887
I0
sVStarFriend
p888
I0
sVHideInputBarFlag
p889
I0
sVChatRoomId
p890
I0
sVEncryChatRoomId
p891
g52
sVAttrStatus
p892
I0
sVStatues
p893
I0
stp894
Rp895
I1
bag34
(g809
g39
(dp896
VUserName
p897
V@39e1b7d22bf39cd0da3203c3a2a2cbe9
p898
sVCity
p899
V\u6606\u660e
p900
sVSnsFlag
p901
I0
sVDisplayName
p902
g52
sVUniFriend
p903
I0
sVMemberCount
p904
I0
sVOwnerUin
p905
I0
sVMemberList
p906
g50
sVAlias
p907
g52
sVPYQuanPin
p908
Vyunnadumuqiaojiaoyozixunyouxiangongsi
p909
sVSignature
p910
V\u6559\u80b2\u4fe1\u606f\u54a8\u8be2\uff1b\u56fd\u5185\u7248\u4e66\u520a\u7684\u9500\u552e\u3002
p911
sVRemarkPYInitial
p912
g52
sVContactFlag
p913
I3
sVUin
p914
I0
sVNickName
p915
V\u4e91\u5357\u72ec\u6728\u6865\u6559\u80b2\u54a8\u8be2\u6709\u9650\u516c\u53f8
p916
sVAppAccountFlag
p917
I0
sVVerifyFlag
p918
I24
sVRemarkPYQuanPin
p919
g52
sVHeadImgUrl
p920
V/cgi-bin/mmwebwx-bin/webwxgeticon?seq=608360022&username=@39e1b7d22bf39cd0da3203c3a2a2cbe9&skey=@crypt_5c45189f_0419d88fe1873afd6e42bcfa8c38a7ed
p921
sVKeyWord
p922
Vgh_
p923
sVProvince
p924
V\u4e91\u5357
p925
sVPYInitial
p926
VYNDMQJYZXYXGS
p927
sVRemarkName
p928
g52
sVIsOwner
p929
I0
sVSex
p930
I0
sVStarFriend
p931
I0
sVHideInputBarFlag
p932
I0
sVChatRoomId
p933
I0
sVEncryChatRoomId
p934
g52
sVAttrStatus
p935
I0
sVStatues
p936
I0
stp937
Rp938
I1
bag34
(g809
g39
(dp939
VUserName
p940
V@768ba59235f22b0d44140c2a9ca6b73d
p941
sVCity
p942
V\u6606\u660e
p943
sVSnsFlag
p944
I0
sVDisplayName
p945
g52
sVUniFriend
p946
I0
sVMemberCount
p947
I0
sVOwnerUin
p948
I0
sVMemberList
p949
g50
sVAlias
p950
g52
sVPYQuanPin
p951
VMrZong
p952
sVSignature
p953
VJust Do IT\uff0c\u5f88\u591a\u5b69\u5b50\u542c\u4e86\u4e54\u4e39\u7684\u8bdd\uff0c\u4ece\u6b64\u8fdb\u5165\u4e86IT\u884c\u4e1a\u3002
p954
sVRemarkPYInitial
p955
g52
sVContactFlag
p956
I3
sVUin
p957
I0
sVNickName
p958
VMrZong
p959
sVAppAccountFlag
p960
I0
sVVerifyFlag
p961
I8
sVRemarkPYQuanPin
p962
g52
sVHeadImgUrl
p963
V/cgi-bin/mmwebwx-bin/webwxgeticon?seq=608360071&username=@768ba59235f22b0d44140c2a9ca6b73d&skey=@crypt_5c45189f_0419d88fe1873afd6e42bcfa8c38a7ed
p964
sVKeyWord
p965
Vgh_
p966
sVProvince
p967
V\u4e91\u5357
p968
sVPYInitial
p969
VMRZONG
p970
sVRemarkName
p971
g52
sVIsOwner
p972
I0
sVSex
p973
I0
sVStarFriend
p974
I0
sVHideInputBarFlag
p975
I0
sVChatRoomId
p976
I0
sVEncryChatRoomId
p977
g52
sVAttrStatus
p978
I0
sVStatues
p979
I0
stp980
Rp981
I1
bag34
(g809
g39
(dp982
VUserName
p983
V@9402ed540e353befd772b1edf287b493
p984
sVCity
p985
V\u6606\u660e
p986
sVSnsFlag
p987
I0
sVDisplayName
p988
g52
sVUniFriend
p989
I0
sVMemberCount
p990
I0
sVOwnerUin
p991
I0
sVMemberList
p992
g50
sVAlias
p993
g52
sVPYQuanPin
p994
Vyunnanongjinhuahuiyouxiangongsi
p995
sVSignature
p996
V\u56fd\u5185\u8d38\u6613\u3001\u7269\u8d44\u4f9b\u9500\uff0c\u8fdb\u51fa\u53e3\u8d38\u6613\uff0c\u7535\u5b50\u5546\u52a1\uff0c\u82b1\u5349\u7684\u79cd\u690d\u53ca\u9500\u552e\u3002
p997
sVRemarkPYInitial
p998
g52
sVContactFlag
p999
I3
sVUin
p1000
I0
sVNickName
p1001
V\u4e91\u5357\u519c\u9526\u82b1\u5349\u6709\u9650\u516c\u53f8
p1002
sVAppAccountFlag
p1003
I0
sVVerifyFlag
p1004
I24
sVRemarkPYQuanPin
p1005
g52
sVHeadImgUrl
p1006
V/cgi-bin/mmwebwx-bin/webwxgeticon?seq=608360076&username=@9402ed540e353befd772b1edf287b493&skey=@crypt_5c45189f_0419d88fe1873afd6e42bcfa8c38a7ed
p1007
sVKeyWord
p1008
Vgh_
p1009
sVProvince
p1010
V\u4e91\u5357
p1011
sVPYInitial
p1012
VYNNJHHYXGS
p1013
sVRemarkName
p1014
g52
sVIsOwner
p1015
I0
sVSex
p1016
I0
sVStarFriend
p1017
I0
sVHideInputBarFlag
p1018
I0
sVChatRoomId
p1019
I0
sVEncryChatRoomId
p1020
g52
sVAttrStatus
p1021
I0
sVStatues
p1022
I0
stp1023
Rp1024
I1
bag34
(g809
g39
(dp1025
VUserName
p1026
V@c3f6cf800ab8fff7fbd4c2abfdbeaad9
p1027
sVCity
p1028
V\u6606\u660e
p1029
sVSnsFlag
p1030
I0
sVDisplayName
p1031
g52
sVUniFriend
p1032
I0
sVMemberCount
p1033
I0
sVOwnerUin
p1034
I0
sVMemberList
p1035
g50
sVAlias
p1036
g52
sVPYQuanPin
p1037
Vyunnayinruankejiyouxiangongsi
p1038
sVSignature
p1039
V\u4f01\u4e1a\u7f51\u7edc\u54c1\u724c\u5ba3\u4f20\u3001\u7f51\u7edc\u8425\u9500\uff0c\u4f01\u4e1a\u7f51\u7ad9\u8ba2\u5236\u4e0e\u63a8\u5e7f\uff1b\u5fae\u4fe1\u5546\u57ce\u3001\u5fae\u4fe1\u8425\u9500\u3001\u5fae\u4fe1\u516c\u4f17\u5e73\u53f0\uff1bAPP\u5546\u57ce\u53ca\u5176\u4ed6\u8f6f\u4ef6\u5f00\u53d1\uff1b\u4f01\u4e1aCRM\u3001OA\u53caERP\u7cfb\u7edf\u7684\u5f00\u53d1\u4e0e\u642d\u5efa\u7b49\u4e1a\u52a1\u3002
p1040
sVRemarkPYInitial
p1041
g52
sVContactFlag
p1042
I1
sVUin
p1043
I0
sVNickName
p1044
V\u4e91\u5357\u94f6\u8f6f\u79d1\u6280\u6709\u9650\u516c\u53f8
p1045
sVAppAccountFlag
p1046
I0
sVVerifyFlag
p1047
I24
sVRemarkPYQuanPin
p1048
g52
sVHeadImgUrl
p1049
V/cgi-bin/mmwebwx-bin/webwxgeticon?seq=609230006&username=@c3f6cf800ab8fff7fbd4c2abfdbeaad9&skey=@crypt_5c45189f_0419d88fe1873afd6e42bcfa8c38a7ed
p1050
sVKeyWord
p1051
Vgh_
p1052
sVProvince
p1053
V\u4e91\u5357
p1054
sVPYInitial
p1055
VYNYRKJYXGS
p1056
sVRemarkName
p1057
g52
sVIsOwner
p1058
I0
sVSex
p1059
I0
sVStarFriend
p1060
I0
sVHideInputBarFlag
p1061
I0
sVChatRoomId
p1062
I0
sVEncryChatRoomId
p1063
g52
sVAttrStatus
p1064
I0
sVStatues
p1065
I0
stp1066
Rp1067
I1
bag34
(g809
g39
(dp1068
VUserName
p1069
V@bf2386949def58891192274a31077351
p1070
sVCity
p1071
V\u6606\u660e
p1072
sVSnsFlag
p1073
I0
sVDisplayName
p1074
g52
sVUniFriend
p1075
I0
sVMemberCount
p1076
I0
sVOwnerUin
p1077
I0
sVMemberList
p1078
g50
sVAlias
p1079
g52
sVPYQuanPin
p1080
Vhongxinghaoyunkuajingwuliupingtai
p1081
sVSignature
p1082
V\u7acb\u8db3\u4e91\u5357\uff0c\u9762\u5411\u4e1c\u5357\u4e9a\uff0c\u8f90\u5c04\u56fd\u5185\u7684\u8de8\u5883\u7269\u6d41\u516c\u4f17\u5e73\u53f0\u3002\u81f4\u529b\u642d\u5efa\u6e44\u516c\u6cb3\u6b21\u533a\u57df\u8de8\u5883\u8d27\u8fd0\u8f66\u8f86\u8fd0\u529b\u6c60\uff0c\u6784\u5efa\u8de8\u5883\u7269\u6d41\u4ea7\u4e1a\u751f\u6001\u5708\u3002\u4e3a\u8f66\u4e3b\u548c\u8d27\u4e3b\u63d0\u4f9b\u76f4\u63a5\u7ebf\u4e0a\u5bf9\u63a5\u7684\u529f\u80fd\uff0c\u53ca\u65f6\u83b7\u53d6\u8d27\u6e90\u53ca\u8f66\u6e90,\u5b8c\u6210\u63a5\u5355\u3001\u8fd0\u8f93\u3001\u6536\u8d27\u3001\u6536\u6b3e\u7b49\u8fc7\u7a0b\u3002
p1083
sVRemarkPYInitial
p1084
g52
sVContactFlag
p1085
I3
sVUin
p1086
I0
sVNickName
p1087
V\u5b8f\u661f\u597d\u8fd0\u8de8\u5883\u7269\u6d41\u5e73\u53f0
p1088
sVAppAccountFlag
p1089
I0
sVVerifyFlag
p1090
I24
sVRemarkPYQuanPin
p1091
g52
sVHeadImgUrl
p1092
V/cgi-bin/mmwebwx-bin/webwxgeticon?seq=623474693&username=@bf2386949def58891192274a31077351&skey=@crypt_5c45189f_0419d88fe1873afd6e42bcfa8c38a7ed
p1093
sVKeyWord
p1094
Vgh_
p1095
sVProvince
p1096
V\u4e91\u5357
p1097
sVPYInitial
p1098
VHXHYKJWLPT
p1099
sVRemarkName
p1100
g52
sVIsOwner
p1101
I0
sVSex
p1102
I0
sVStarFriend
p1103
I0
sVHideInputBarFlag
p1104
I0
sVChatRoomId
p1105
I0
sVEncryChatRoomId
p1106
g52
sVAttrStatus
p1107
I0
sVStatues
p1108
I0
stp1109
Rp1110
I1
batp1111
Rp1112
I1
bssS'loginInfo'
p1113
(dp1114
S'SyncKey'
p1115
(dp1116
VCount
p1117
I4
sVList
p1118
(lp1119
(dp1120
VVal
p1121
I623474840
sVKey
p1122
I1
sa(dp1123
VVal
p1124
I623475018
sVKey
p1125
I2
sa(dp1126
VVal
p1127
I623474952
sVKey
p1128
I3
sa(dp1129
VVal
p1130
I1493346705
sVKey
p1131
I1000
sassS'syncUrl'
p1132
S'https://webpush.wx2.qq.com/cgi-bin/mmwebwx-bin'
p1133
sS'skey'
p1134
V@crypt_5c45189f_0419d88fe1873afd6e42bcfa8c38a7ed
p1135
sS'wxuin'
p1136
V3496066292
p1137
sS'synckey'
p1138
S'1_623474840|2_623475018|3_623474952|1000_1493346705'
p1139
sS'url'
p1140
Vhttps://wx2.qq.com/cgi-bin/mmwebwx-bin
p1141
sS'pass_ticket'
p1142
VHq0mELuLwQKdD9YQ%2BlnGITH2cXCPd46EPGZ6%2FiSMChipfSm6UWUQ9rTpT7VoAaVw
p1143
sS'wxsid'
p1144
VmZBpjGzKTO/pEUNL
p1145
sS'User'
p1146
g34
(g38
g39
(dp1147
g41
g31
sg42
g43
sg44
g43
sg45
I0
sg47
g50
sg51
g52
sg53
g52
sg77
I1
sg55
I0
sg56
I0
sg57
g43
sg58
g43
sg59
g52
sg60
g52
sg61
I0
sg62
I0
sg63
I1
sg64
g43
sg65
I0
sg68
I0
sg66
I1
sg67
I0
sg46
I0
sg69
g43
sg70
g52
sg71
I0
sg72
g73
sg74
g52
sg75
g76
sg54
L3496066292L
sg78
I0
sg79
I0
stp1148
Rp1149
I1
bsS'InviteStartCount'
p1150
I40
sS'fileUrl'
p1151
S'https://file.wx2.qq.com/cgi-bin/mmwebwx-bin'
p1152
sS'BaseRequest'
p1153
(dp1154
g54
g1137
sS'Skey'
p1155
g1135
sS'DeviceID'
p1156
g1143
sS'Sid'
p1157
g1145
ssS'deviceid'
p1158
S'e677000303066397'
p1159
ss.