(dp0
S'cookies'
p1
(dp2
S'webwx_data_ticket'
p3
S'gSeuzzKRVC4C4Zw0B+8SD4ek'
p4
sS'wxuin'
p5
S'3496066292'
p6
sS'webwxuvid'
p7
S'252a7d16bab750836d081a19cee5685be5835b541c330fe431bfc919597610373410be3dfd3d2b0e5af6a78c175fad90'
p8
sS'webwx_auth_ticket'
p9
S'CIsBELSHjKIIGoABZh4U4I9xNOvaW2x8LD6Hvw6l99J9YSfV+YU89JaARX6evKCB9d81fx9G6x3FNdS2ecPgavOLmxiMqdnD9ttZzX9nIySXGFO0jJpFwSDiDbtZvER/EAwsu2GpybJzkr5AWjrhkZ6wvtqW78j6382Q+tnC0qHBSNzMjF4glafoUxg='
p10
sS'wxloadtime'
p11
S'1493201465'
p12
sS'wxsid'
p13
S'lDzzo5rGioZ/X6g5'
p14
sS'mm_lang'
p15
S'zh_CN'
p16
ssS'version'
p17
S'1.3.1'
p18
sS'storage'
p19
(dp20
S'userName'
p21
V@f1068492675916917d23c4b11062eaa56ff4d37461b81aa2405e52338127f628
p22
sS'lastInputUserName'
p23
NsS'memberList'
p24
(lp25
(dp26
S'UserName'
p27
g22
sS'City'
p28
S''
p29
sS'DisplayName'
p30
g29
sS'UniFriend'
p31
I0
sS'OwnerUin'
p32
I0
sS'MemberList'
p33
(lp34
sS'PYQuanPin'
p35
V
p36
sS'RemarkPYInitial'
p37
g36
sS'Uin'
p38
L3496066292L
sS'AppAccountFlag'
p39
I0
sS'VerifyFlag'
p40
I0
sS'Province'
p41
g29
sS'KeyWord'
p42
g29
sS'RemarkName'
p43
g36
sS'PYInitial'
p44
g36
sS'ChatRoomId'
p45
I0
sS'HideInputBarFlag'
p46
I0
sVHeadImgFlag
p47
I1
sS'EncryChatRoomId'
p48
g29
sS'AttrStatus'
p49
I0
sS'SnsFlag'
p50
I1
sS'MemberCount'
p51
I0
sVWebWxPluginSwitch
p52
I0
sS'Alias'
p53
g29
sS'Signature'
p54
g36
sS'ContactFlag'
p55
I0
sS'NickName'
p56
V\u5c0f\u5b89
p57
sS'RemarkPYQuanPin'
p58
g36
sS'HeadImgUrl'
p59
V/cgi-bin/mmwebwx-bin/webwxgeticon?seq=1659306704&username=@f1068492675916917d23c4b11062eaa56ff4d37461b81aa2405e52338127f628&skey=@crypt_5c45189f_47d32b4b8a08da80813ee1cc1380d6c0
p60
sS'Sex'
p61
I1
sS'StarFriend'
p62
I0
sS'Statues'
p63
I0
sa(dp64
VUserName
p65
V@b48e13c751b688f50b6c5f914c86782e
p66
sVCity
p67
V\u6606\u660e
p68
sVSnsFlag
p69
I17
sVDisplayName
p70
g36
sVUniFriend
p71
I0
sVMemberCount
p72
I0
sVOwnerUin
p73
I0
sVMemberList
p74
(lp75
sVAlias
p76
Vzongan1991
p77
sVPYQuanPin
p78
Vzongan
p79
sVSignature
p80
g36
sVRemarkPYInitial
p81
g36
sVContactFlag
p82
I3
sVUin
p83
I0
sVNickName
p84
V\u5b97\u5b89
p85
sVAppAccountFlag
p86
I0
sVVerifyFlag
p87
I0
sVRemarkPYQuanPin
p88
g36
sVHeadImgUrl
p89
V/cgi-bin/mmwebwx-bin/webwxgeticon?seq=611350015&username=@b48e13c751b688f50b6c5f914c86782e&skey=@crypt_5c45189f_47d32b4b8a08da80813ee1cc1380d6c0
p90
sVKeyWord
p91
Vsiw
p92
sVProvince
p93
V\u4e91\u5357
p94
sVPYInitial
p95
VZA
p96
sVRemarkName
p97
g36
sVIsOwner
p98
I0
sVSex
p99
I1
sVStarFriend
p100
I0
sVHideInputBarFlag
p101
I0
sVChatRoomId
p102
I0
sVEncryChatRoomId
p103
g36
sVAttrStatus
p104
I127095
sVStatues
p105
I0
sa(dp106
VUserName
p107
V@d52a49ee024dba7479a1513bc4507bbca40b14cc49eed67a9bc38343068f07c3
p108
sVCity
p109
g36
sVSnsFlag
p110
I16
sVDisplayName
p111
g36
sVUniFriend
p112
I0
sVMemberCount
p113
I0
sVOwnerUin
p114
I0
sVMemberList
p115
(lp116
sVAlias
p117
Vzfj13769748753
p118
sVPYQuanPin
p119
Vzongfajun
p120
sVSignature
p121
g36
sVRemarkPYInitial
p122
g36
sVContactFlag
p123
I3
sVUin
p124
I0
sVNickName
p125
V\u5b97\u53d1\u519b
p126
sVAppAccountFlag
p127
I0
sVVerifyFlag
p128
I0
sVRemarkPYQuanPin
p129
g36
sVHeadImgUrl
p130
V/cgi-bin/mmwebwx-bin/webwxgeticon?seq=610250005&username=@d52a49ee024dba7479a1513bc4507bbca40b14cc49eed67a9bc38343068f07c3&skey=@crypt_5c45189f_47d32b4b8a08da80813ee1cc1380d6c0
p131
sVKeyWord
p132
g36
sVProvince
p133
g36
sVPYInitial
p134
VZFJ
p135
sVRemarkName
p136
g36
sVIsOwner
p137
I0
sVSex
p138
I0
sVStarFriend
p139
I0
sVHideInputBarFlag
p140
I0
sVChatRoomId
p141
I0
sVEncryChatRoomId
p142
g36
sVAttrStatus
p143
I4133
sVStatues
p144
I0
sa(dp145
VUserName
p146
V@855c0ff802b97adafc1daf5fa6f196d464cd2aa8d00223eb1cb63d15b9033951
p147
sVCity
p148
g36
sVSnsFlag
p149
I17
sVDisplayName
p150
g36
sVUniFriend
p151
I0
sVMemberCount
p152
I0
sVOwnerUin
p153
I0
sVMemberList
p154
(lp155
sVAlias
p156
g36
sVPYQuanPin
p157
Vniannian
p158
sVSignature
p159
g36
sVRemarkPYInitial
p160
g36
sVContactFlag
p161
I3
sVUin
p162
I0
sVNickName
p163
V\u5e74\u5e74
p164
sVAppAccountFlag
p165
I0
sVVerifyFlag
p166
I0
sVRemarkPYQuanPin
p167
g36
sVHeadImgUrl
p168
V/cgi-bin/mmwebwx-bin/webwxgeticon?seq=612140030&username=@855c0ff802b97adafc1daf5fa6f196d464cd2aa8d00223eb1cb63d15b9033951&skey=@crypt_5c45189f_47d32b4b8a08da80813ee1cc1380d6c0
p169
sVKeyWord
p170
g36
sVProvince
p171
VWicklow
p172
sVPYInitial
p173
VNN
p174
sVRemarkName
p175
g36
sVIsOwner
p176
I0
sVSex
p177
I2
sVStarFriend
p178
I0
sVHideInputBarFlag
p179
I0
sVChatRoomId
p180
I0
sVEncryChatRoomId
p181
g36
sVAttrStatus
p182
I233509
sVStatues
p183
I0
sa(dp184
VUserName
p185
V@442d2c25333295d27c3f6846ff2d6939badb28377a088e55089d5ff2269859ee
p186
sVCity
p187
V\u6606\u660e
p188
sVSnsFlag
p189
I17
sVDisplayName
p190
g36
sVUniFriend
p191
I0
sVMemberCount
p192
I0
sVOwnerUin
p193
I0
sVMemberList
p194
(lp195
sVAlias
p196
Vzhanglj1211
p197
sVPYQuanPin
p198
Vzhuimeng
p199
sVSignature
p200
g36
sVRemarkPYInitial
p201
g36
sVContactFlag
p202
I3
sVUin
p203
I0
sVNickName
p204
V\u8ffd\u68a6
p205
sVAppAccountFlag
p206
I0
sVVerifyFlag
p207
I0
sVRemarkPYQuanPin
p208
g36
sVHeadImgUrl
p209
V/cgi-bin/mmwebwx-bin/webwxgeticon?seq=614850104&username=@442d2c25333295d27c3f6846ff2d6939badb28377a088e55089d5ff2269859ee&skey=@crypt_5c45189f_47d32b4b8a08da80813ee1cc1380d6c0
p210
sVKeyWord
p211
g36
sVProvince
p212
V\u4e91\u5357
p213
sVPYInitial
p214
VZM
p215
sVRemarkName
p216
g36
sVIsOwner
p217
I0
sVSex
p218
I1
sVStarFriend
p219
I0
sVHideInputBarFlag
p220
I0
sVChatRoomId
p221
I0
sVEncryChatRoomId
p222
g36
sVAttrStatus
p223
I167973
sVStatues
p224
I0
sa(dp225
VUserName
p226
V@aeafca6323315e3966aa365e20da9b8c
p227
sVCity
p228
V\u66f2\u9756
p229
sVSnsFlag
p230
I17
sVDisplayName
p231
g36
sVUniFriend
p232
I0
sVMemberCount
p233
I0
sVOwnerUin
p234
I0
sVMemberList
p235
(lp236
sVAlias
p237
g36
sVPYQuanPin
p238
Vzonglingxian
p239
sVSignature
p240
V\u7ea2\u989c\u6613\u788e\u4e0d\u5982\u626e\u94dc\u5899\u94c1\u58c1
p241
sVRemarkPYInitial
p242
g36
sVContactFlag
p243
I3
sVUin
p244
I0
sVNickName
p245
V\u5b97\u73b2\u4ed9
p246
sVAppAccountFlag
p247
I0
sVVerifyFlag
p248
I0
sVRemarkPYQuanPin
p249
g36
sVHeadImgUrl
p250
V/cgi-bin/mmwebwx-bin/webwxgeticon?seq=617220003&username=@aeafca6323315e3966aa365e20da9b8c&skey=@crypt_5c45189f_47d32b4b8a08da80813ee1cc1380d6c0
p251
sVKeyWord
p252
Vzon
p253
sVProvince
p254
V\u4e91\u5357
p255
sVPYInitial
p256
VZLX
p257
sVRemarkName
p258
g36
sVIsOwner
p259
I0
sVSex
p260
I2
sVStarFriend
p261
I0
sVHideInputBarFlag
p262
I0
sVChatRoomId
p263
I0
sVEncryChatRoomId
p264
g36
sVAttrStatus
p265
I1127
sVStatues
p266
I0
sa(dp267
VUserName
p268
V@e7ed7995011ad4f16f257f2bb423fa92
p269
sVCity
p270
V\u6606\u660e
p271
sVSnsFlag
p272
I17
sVDisplayName
p273
g36
sVUniFriend
p274
I0
sVMemberCount
p275
I0
sVOwnerUin
p276
I0
sVMemberList
p277
(lp278
sVAlias
p279
g36
sVPYQuanPin
p280
Vtangrongbin
p281
sVSignature
p282
Vlove is a touch and yet not a touch.
p283
sVRemarkPYInitial
p284
g36
sVContactFlag
p285
I3
sVUin
p286
I0
sVNickName
p287
V\u5510\u8363\u658c
p288
sVAppAccountFlag
p289
I0
sVVerifyFlag
p290
I0
sVRemarkPYQuanPin
p291
g36
sVHeadImgUrl
p292
V/cgi-bin/mmwebwx-bin/webwxgeticon?seq=619730260&username=@e7ed7995011ad4f16f257f2bb423fa92&skey=@crypt_5c45189f_47d32b4b8a08da80813ee1cc1380d6c0
p293
sVKeyWord
p294
Vtrb
p295
sVProvince
p296
V\u4e91\u5357
p297
sVPYInitial
p298
VTRB
p299
sVRemarkName
p300
g36
sVIsOwner
p301
I0
sVSex
p302
I1
sVStarFriend
p303
I0
sVHideInputBarFlag
p304
I0
sVChatRoomId
p305
I0
sVEncryChatRoomId
p306
g36
sVAttrStatus
p307
I33784231
sVStatues
p308
I0
sa(dp309
VUserName
p310
V@838ff7059b231c86b7690bad001eda4d183558b840b775498be85b1f648e7e7d
p311
sVCity
p312
V\u6606\u660e
p313
sVSnsFlag
p314
I17
sVDisplayName
p315
g36
sVUniFriend
p316
I0
sVMemberCount
p317
I0
sVOwnerUin
p318
I0
sVMemberList
p319
(lp320
sVAlias
p321
Vweixinsal001
p322
sVPYQuanPin
p323
VAispanclassemojiemoji1f340span
p324
sVSignature
p325
V<span class="emoji emoji1f33e"></span>
p326
sVRemarkPYInitial
p327
g36
sVContactFlag
p328
I3
sVUin
p329
I0
sVNickName
p330
VAi~\U0001f340
p331
sVAppAccountFlag
p332
I0
sVVerifyFlag
p333
I0
sVRemarkPYQuanPin
p334
g36
sVHeadImgUrl
p335
V/cgi-bin/mmwebwx-bin/webwxgeticon?seq=623474552&username=@838ff7059b231c86b7690bad001eda4d183558b840b775498be85b1f648e7e7d&skey=@crypt_5c45189f_47d32b4b8a08da80813ee1cc1380d6c0
p336
sVKeyWord
p337
g36
sVProvince
p338
V\u4e91\u5357
p339
sVPYInitial
p340
VAISPANCLASSEMOJIEMOJI1F340SPAN
p341
sVRemarkName
p342
g36
sVIsOwner
p343
I0
sVSex
p344
I2
sVStarFriend
p345
I0
sVHideInputBarFlag
p346
I0
sVChatRoomId
p347
I0
sVEncryChatRoomId
p348
g36
sVAttrStatus
p349
I102437
sVStatues
p350
I0
sa(dp351
VUserName
p352
V@6dd7d028f9c64afcb7a217781d512efbc7a4b2b5e99dc9f2b62f6624f5d2c1cb
p353
sVCity
p354
V\u66f2\u9756
p355
sVSnsFlag
p356
I17
sVDisplayName
p357
g36
sVUniFriend
p358
I0
sVMemberCount
p359
I0
sVOwnerUin
p360
I0
sVMemberList
p361
(lp362
sVAlias
p363
VP_Dreame_Q
p364
sVPYQuanPin
p365
VSunshine
p366
sVSignature
p367
V\u52ff\u671f\u671b\uff0c\u4e0d\u5931\u671b
p368
sVRemarkPYInitial
p369
g36
sVContactFlag
p370
I1
sVUin
p371
I0
sVNickName
p372
VSunshine
p373
sVAppAccountFlag
p374
I0
sVVerifyFlag
p375
I0
sVRemarkPYQuanPin
p376
g36
sVHeadImgUrl
p377
V/cgi-bin/mmwebwx-bin/webwxgeticon?seq=623473977&username=@6dd7d028f9c64afcb7a217781d512efbc7a4b2b5e99dc9f2b62f6624f5d2c1cb&skey=@crypt_5c45189f_47d32b4b8a08da80813ee1cc1380d6c0
p378
sVKeyWord
p379
g36
sVProvince
p380
V\u4e91\u5357
p381
sVPYInitial
p382
VSUNSHINE
p383
sVRemarkName
p384
g36
sVIsOwner
p385
I0
sVSex
p386
I2
sVStarFriend
p387
I0
sVHideInputBarFlag
p388
I0
sVChatRoomId
p389
I0
sVEncryChatRoomId
p390
g36
sVAttrStatus
p391
I33656957
sVStatues
p392
I0
sa(dp393
VUserName
p394
V@fdfeee72e98030fe5181070def02e24b1881aca0b815cfb745a78b995e394dda
p395
sVCity
p396
V\u66f2\u9756
p397
sVSnsFlag
p398
I1
sVDisplayName
p399
g36
sVUniFriend
p400
I0
sVMemberCount
p401
I0
sVOwnerUin
p402
I0
sVMemberList
p403
(lp404
sVAlias
p405
Vzong159049
p406
sVPYQuanPin
p407
Vzxiaoxue
p408
sVSignature
p409
V\u5fc3\u5982\u6b62\u6c34
p410
sVRemarkPYInitial
p411
g36
sVContactFlag
p412
I3
sVUin
p413
I0
sVNickName
p414
Vz\u5c0f\u5b66
p415
sVAppAccountFlag
p416
I0
sVVerifyFlag
p417
I0
sVRemarkPYQuanPin
p418
g36
sVHeadImgUrl
p419
V/cgi-bin/mmwebwx-bin/webwxgeticon?seq=623470052&username=@fdfeee72e98030fe5181070def02e24b1881aca0b815cfb745a78b995e394dda&skey=@crypt_5c45189f_47d32b4b8a08da80813ee1cc1380d6c0
p420
sVKeyWord
p421
g36
sVProvince
p422
V\u4e91\u5357
p423
sVPYInitial
p424
VZXX
p425
sVRemarkName
p426
g36
sVIsOwner
p427
I0
sVSex
p428
I1
sVStarFriend
p429
I0
sVHideInputBarFlag
p430
I0
sVChatRoomId
p431
I0
sVEncryChatRoomId
p432
g36
sVAttrStatus
p433
I4133
sVStatues
p434
I0
sa(dp435
VUserName
p436
V@4ab68cb12da128aac32c153824070e0d0cf4f9f2d74bca7c8401b45686d11070
p437
sVCity
p438
V\u6606\u660e
p439
sVSnsFlag
p440
I17
sVDisplayName
p441
g36
sVUniFriend
p442
I0
sVMemberCount
p443
I0
sVOwnerUin
p444
I0
sVMemberList
p445
(lp446
sVAlias
p447
Vlqz13769133408
p448
sVPYQuanPin
p449
Vlongqiongzhangchengchanglonghuahui
p450
sVSignature
p451
V\u4ee5\u82b1\u4e3a\u5a92\uff0c\u4ea4\u5929\u4e0b\u670b\u53cb\u000a\u7ec4\u4e0a\u7b49\u82b1\uff0c\u8bda\u5bf9\u65b0\u8001\u5ba2\u6237\u000a\u6c42\u7f18\u5206\uff0c\u751f\u610f\u5e38\u5728
p452
sVRemarkPYInitial
p453
g36
sVContactFlag
p454
I65539
sVUin
p455
I0
sVNickName
p456
V\u9f99\u743c\u7ae0 (\u665f\u660c\u9f99\u82b1\u5349)
p457
sVAppAccountFlag
p458
I0
sVVerifyFlag
p459
I0
sVRemarkPYQuanPin
p460
g36
sVHeadImgUrl
p461
V/cgi-bin/mmwebwx-bin/webwxgeticon?seq=614850054&username=@4ab68cb12da128aac32c153824070e0d0cf4f9f2d74bca7c8401b45686d11070&skey=@crypt_5c45189f_47d32b4b8a08da80813ee1cc1380d6c0
p462
sVKeyWord
p463
g36
sVProvince
p464
V\u4e91\u5357
p465
sVPYInitial
p466
VLQZCCLHH
p467
sVRemarkName
p468
g36
sVIsOwner
p469
I0
sVSex
p470
I1
sVStarFriend
p471
I0
sVHideInputBarFlag
p472
I0
sVChatRoomId
p473
I0
sVEncryChatRoomId
p474
g36
sVAttrStatus
p475
I135205
sVStatues
p476
I0
sa(dp477
VUserName
p478
V@81e841f676309d6f3612dfef36ac178922e2b5ecb7f4cff5de83ca3ff965d34d
p479
sVCity
p480
g36
sVSnsFlag
p481
I17
sVDisplayName
p482
g36
sVUniFriend
p483
I0
sVMemberCount
p484
I0
sVOwnerUin
p485
I0
sVMemberList
p486
(lp487
sVAlias
p488
Vxiagxiag666222888999
p489
sVPYQuanPin
p490
Vfoyuan
p491
sVSignature
p492
g36
sVRemarkPYInitial
p493
g36
sVContactFlag
p494
I65539
sVUin
p495
I0
sVNickName
p496
V\u4f5b\u7f18
p497
sVAppAccountFlag
p498
I0
sVVerifyFlag
p499
I0
sVRemarkPYQuanPin
p500
g36
sVHeadImgUrl
p501
V/cgi-bin/mmwebwx-bin/webwxgeticon?seq=619730491&username=@81e841f676309d6f3612dfef36ac178922e2b5ecb7f4cff5de83ca3ff965d34d&skey=@crypt_5c45189f_47d32b4b8a08da80813ee1cc1380d6c0
p502
sVKeyWord
p503
g36
sVProvince
p504
g36
sVPYInitial
p505
VFY
p506
sVRemarkName
p507
g36
sVIsOwner
p508
I0
sVSex
p509
I1
sVStarFriend
p510
I0
sVHideInputBarFlag
p511
I0
sVChatRoomId
p512
I0
sVEncryChatRoomId
p513
g36
sVAttrStatus
p514
I4261
sVStatues
p515
I0
sa(dp516
VUserName
p517
V@32ecb377a5e9eb9ba347f1569e4fcd20a2d26e0463346f4261ab2ed02229befd
p518
sVCity
p519
V\u66f2\u9756
p520
sVSnsFlag
p521
I17
sVDisplayName
p522
g36
sVUniFriend
p523
I0
sVMemberCount
p524
I0
sVOwnerUin
p525
I0
sVMemberList
p526
(lp527
sVAlias
p528
VLyyl_Wowo48
p529
sVPYQuanPin
p530
Vheidebaidehuidespanclassemojiemoji1f340span
p531
sVSignature
p532
V\u82b1\u5e97\u5173\u4e86\uff0c\u82b1\u5f00\u4e86\u3002
p533
sVRemarkPYInitial
p534
g36
sVContactFlag
p535
I1
sVUin
p536
I0
sVNickName
p537
V\u9ed1\u7684\u767d\u7684\u7070\u7684\U0001f340
p538
sVAppAccountFlag
p539
I0
sVVerifyFlag
p540
I0
sVRemarkPYQuanPin
p541
g36
sVHeadImgUrl
p542
V/cgi-bin/mmwebwx-bin/webwxgeticon?seq=623474666&username=@32ecb377a5e9eb9ba347f1569e4fcd20a2d26e0463346f4261ab2ed02229befd&skey=@crypt_5c45189f_47d32b4b8a08da80813ee1cc1380d6c0
p543
sVKeyWord
p544
g36
sVProvince
p545
V\u4e91\u5357
p546
sVPYInitial
p547
VHDBDHDSPANCLASSEMOJIEMOJI1F340SPAN
p548
sVRemarkName
p549
g36
sVIsOwner
p550
I0
sVSex
p551
I2
sVStarFriend
p552
I0
sVHideInputBarFlag
p553
I0
sVChatRoomId
p554
I0
sVEncryChatRoomId
p555
g36
sVAttrStatus
p556
I16897063
sVStatues
p557
I0
sa(dp558
VUserName
p559
V@e98256ef1d4ac87b4f1a6d664c2bfb04
p560
sVCity
p561
g36
sVSnsFlag
p562
I49
sVDisplayName
p563
g36
sVUniFriend
p564
I0
sVMemberCount
p565
I0
sVOwnerUin
p566
I0
sVMemberList
p567
(lp568
sVAlias
p569
Vcolorcoco
p570
sVPYQuanPin
p571
Vyushushu
p572
sVSignature
p573
V\u6211\u7684\u773c\u6cea\u662f\u73cd\u73e0\uff0c\u4e0d\u54ed\u3002
p574
sVRemarkPYInitial
p575
g36
sVContactFlag
p576
I3
sVUin
p577
I0
sVNickName
p578
V\u7389\u8700\u9ecd
p579
sVAppAccountFlag
p580
I0
sVVerifyFlag
p581
I0
sVRemarkPYQuanPin
p582
g36
sVHeadImgUrl
p583
V/cgi-bin/mmwebwx-bin/webwxgeticon?seq=623474677&username=@e98256ef1d4ac87b4f1a6d664c2bfb04&skey=@crypt_5c45189f_47d32b4b8a08da80813ee1cc1380d6c0
p584
sVKeyWord
p585
Vyup
p586
sVProvince
p587
g36
sVPYInitial
p588
VYSS
p589
sVRemarkName
p590
g36
sVIsOwner
p591
I0
sVSex
p592
I2
sVStarFriend
p593
I0
sVHideInputBarFlag
p594
I0
sVChatRoomId
p595
I0
sVEncryChatRoomId
p596
g36
sVAttrStatus
p597
I83173
sVStatues
p598
I0
sa(dp599
VUserName
p600
V@777a95e9316ac607ba33671197e3fc9f
p601
sVCity
p602
V\u6606\u660e
p603
sVSnsFlag
p604
I17
sVDisplayName
p605
g36
sVUniFriend
p606
I0
sVMemberCount
p607
I0
sVOwnerUin
p608
I0
sVMemberList
p609
(lp610
sVAlias
p611
Vlittle-rainning
p612
sVPYQuanPin
p613
Vguyue
p614
sVSignature
p615
V<span class="emoji emoji1f343"></span>\u65e5\u5b50\u5c31\u8981\u50cf\u82b1\u513f\u90a3\u822c\u707f\u70c2<span class="emoji emoji1f338"></span><span class="emoji emoji1f33b"></span>
p616
sVRemarkPYInitial
p617
g36
sVContactFlag
p618
I1
sVUin
p619
I0
sVNickName
p620
V\u53e4\u6708
p621
sVAppAccountFlag
p622
I0
sVVerifyFlag
p623
I0
sVRemarkPYQuanPin
p624
g36
sVHeadImgUrl
p625
V/cgi-bin/mmwebwx-bin/webwxgeticon?seq=623474709&username=@777a95e9316ac607ba33671197e3fc9f&skey=@crypt_5c45189f_47d32b4b8a08da80813ee1cc1380d6c0
p626
sVKeyWord
p627
Vhux
p628
sVProvince
p629
V\u4e91\u5357
p630
sVPYInitial
p631
VGY
p632
sVRemarkName
p633
g36
sVIsOwner
p634
I0
sVSex
p635
I2
sVStarFriend
p636
I0
sVHideInputBarFlag
p637
I0
sVChatRoomId
p638
I0
sVEncryChatRoomId
p639
g36
sVAttrStatus
p640
I16881893
sVStatues
p641
I0
sa(dp642
VUserName
p643
V@066b5100283c4f2cf44c87745a08897a
p644
sVCity
p645
V\u6606\u660e
p646
sVSnsFlag
p647
I17
sVDisplayName
p648
g36
sVUniFriend
p649
I0
sVMemberCount
p650
I0
sVOwnerUin
p651
I0
sVMemberList
p652
(lp653
sVAlias
p654
VBABOkey
p655
sVPYQuanPin
p656
VAAtouyingjibingmuyinxiang18788497301bai
p657
sVSignature
p658
V\u6295\u5f71\u673a\u3001\u5c4f\u5e55\u3001\u97f3\u54cd2017\u73b0\u8d27\u6279\u53d1\uff01\u79d2\u53d1\uff01\u79d2\u9001\uff01\u7968\u88d518788497301
p659
sVRemarkPYInitial
p660
g36
sVContactFlag
p661
I65539
sVUin
p662
I0
sVNickName
p663
VAA\u6295\u5f71\u673a\u5c4f\u5e55\u97f3\u54cd18788497301\u767d
p664
sVAppAccountFlag
p665
I0
sVVerifyFlag
p666
I0
sVRemarkPYQuanPin
p667
g36
sVHeadImgUrl
p668
V/cgi-bin/mmwebwx-bin/webwxgeticon?seq=623474715&username=@066b5100283c4f2cf44c87745a08897a&skey=@crypt_5c45189f_47d32b4b8a08da80813ee1cc1380d6c0
p669
sVKeyWord
p670
Vbai
p671
sVProvince
p672
V\u4e91\u5357
p673
sVPYInitial
p674
VAATYJBMYX18788497301B
p675
sVRemarkName
p676
g36
sVIsOwner
p677
I0
sVSex
p678
I1
sVStarFriend
p679
I0
sVHideInputBarFlag
p680
I0
sVChatRoomId
p681
I0
sVEncryChatRoomId
p682
g36
sVAttrStatus
p683
L2151780453L
sVStatues
p684
I0
sasS'chatroomList'
p685
(lp686
sS'nickName'
p687
g57
sS'mpList'
p688
(lp689
(dp690
VUserName
p691
V@adce0cdb48ba3341e98d796977cb7b2a
p692
sVCity
p693
V\u6d77\u6dc0
p694
sVSnsFlag
p695
I0
sVDisplayName
p696
g36
sVUniFriend
p697
I0
sVMemberCount
p698
I0
sVOwnerUin
p699
I0
sVMemberList
p700
(lp701
sVAlias
p702
Vautohomeweixin
p703
sVPYQuanPin
p704
Vqichezhijia
p705
sVSignature
p706
V\u60a8\u8eab\u8fb9\u7684\u61c2\u8f66\u5bb6\u4eba\uff0c\u7ed9\u60a8\u5e26\u6765\u4e70\u8f66\u7528\u8f66\u53ca\u8f66\u751f\u6d3b\u7684\u5168\u7a0b\u670d\u52a1\uff0c\u503c\u5f97\u4fe1\u8d56\u7684\u4e92\u8054\u7f51\u6c7d\u8f66\u8425\u9500\u5e73\u53f0\u3002
p707
sVRemarkPYInitial
p708
g36
sVContactFlag
p709
I3
sVUin
p710
I0
sVNickName
p711
V\u6c7d\u8f66\u4e4b\u5bb6
p712
sVAppAccountFlag
p713
I0
sVVerifyFlag
p714
I24
sVRemarkPYQuanPin
p715
g36
sVHeadImgUrl
p716
V/cgi-bin/mmwebwx-bin/webwxgeticon?seq=619730103&username=@adce0cdb48ba3341e98d796977cb7b2a&skey=@crypt_5c45189f_47d32b4b8a08da80813ee1cc1380d6c0
p717
sVKeyWord
p718
Vgh_
p719
sVProvince
p720
V\u5317\u4eac
p721
sVPYInitial
p722
VQCZJ
p723
sVRemarkName
p724
g36
sVIsOwner
p725
I0
sVSex
p726
I0
sVStarFriend
p727
I0
sVHideInputBarFlag
p728
I0
sVChatRoomId
p729
I0
sVEncryChatRoomId
p730
g36
sVAttrStatus
p731
I0
sVStatues
p732
I0
sa(dp733
VUserName
p734
V@fefb2664759384086ee1eb6a4e1121c6
p735
sVCity
p736
V\u6606\u660e
p737
sVSnsFlag
p738
I0
sVDisplayName
p739
g36
sVUniFriend
p740
I0
sVMemberCount
p741
I0
sVOwnerUin
p742
I0
sVMemberList
p743
(lp744
sVAlias
p745
g36
sVPYQuanPin
p746
Vyunnaheyuzhuangshi
p747
sVSignature
p748
V\u4e3b\u8981\u627f\u63a5\uff1a\u5bb6\u5c45\u3001\u5546\u4e1a\u5e97\u94fa\uff08\u8fde\u9501\u5e97\uff09\u3001\u529e\u516c\u3001\u9152\u5e97\u3001\u522b\u5885\u7b49\u88c5\u9970\u5de5\u7a0b\u65bd\u5de5\uff0c\u751f\u4ea7\u5b9a\u5236\u5404\u7c7b\u5c55\u5385\u5c55\u67dc\u3001\u4e13\u67dc\uff08\u70e4\u6f06\u3001\u73bb\u7483\u3001\u5b9e\u6728\u7b49\u6210\u54c1\u67dc\uff09\uff0c\u516c\u53f8\u4ee5\u8bbe\u8ba1\u4e3a\u6838\u5fc3\u4e0d\u65ad\u5bfb\u6c42\u88c5\u9970\u884c\u4e1a\u7684\u79c1\u5bfc\u6027\u3001\u81ea\u6211\u4e2a\u6027\u98ce\u683c\u521b\u4f5c\u7075\u9b42\u4e3a\u5ba2\u6237\u8bbe\u8ba1\u51fa\u60a8\u7684\u7406\u5ff5\u9700\u6c42\u3002
p749
sVRemarkPYInitial
p750
g36
sVContactFlag
p751
I3
sVUin
p752
I0
sVNickName
p753
V\u4e91\u5357\u9e64\u7389\u88c5\u9970
p754
sVAppAccountFlag
p755
I0
sVVerifyFlag
p756
I8
sVRemarkPYQuanPin
p757
g36
sVHeadImgUrl
p758
V/cgi-bin/mmwebwx-bin/webwxgeticon?seq=606910278&username=@fefb2664759384086ee1eb6a4e1121c6&skey=@crypt_5c45189f_47d32b4b8a08da80813ee1cc1380d6c0
p759
sVKeyWord
p760
Vgh_
p761
sVProvince
p762
V\u4e91\u5357
p763
sVPYInitial
p764
VYNHYZS
p765
sVRemarkName
p766
g36
sVIsOwner
p767
I0
sVSex
p768
I0
sVStarFriend
p769
I0
sVHideInputBarFlag
p770
I0
sVChatRoomId
p771
I0
sVEncryChatRoomId
p772
g36
sVAttrStatus
p773
I0
sVStatues
p774
I0
sa(dp775
VUserName
p776
V@b00042162e5acfde8fcfb88e66369bba
p777
sVCity
p778
V\u6606\u660e
p779
sVSnsFlag
p780
I0
sVDisplayName
p781
g36
sVUniFriend
p782
I0
sVMemberCount
p783
I0
sVOwnerUin
p784
I0
sVMemberList
p785
(lp786
sVAlias
p787
Vdmq100
p788
sVPYQuanPin
p789
Vyunnadumuqiaojiaoyozixunyouxiangongsi
p790
sVSignature
p791
V\u6559\u80b2\u4fe1\u606f\u54a8\u8be2\uff1b\u56fd\u5185\u7248\u4e66\u520a\u7684\u9500\u552e\u3002
p792
sVRemarkPYInitial
p793
g36
sVContactFlag
p794
I3
sVUin
p795
I0
sVNickName
p796
V\u4e91\u5357\u72ec\u6728\u6865\u6559\u80b2\u54a8\u8be2\u6709\u9650\u516c\u53f8
p797
sVAppAccountFlag
p798
I0
sVVerifyFlag
p799
I24
sVRemarkPYQuanPin
p800
g36
sVHeadImgUrl
p801
V/cgi-bin/mmwebwx-bin/webwxgeticon?seq=608360022&username=@b00042162e5acfde8fcfb88e66369bba&skey=@crypt_5c45189f_47d32b4b8a08da80813ee1cc1380d6c0
p802
sVKeyWord
p803
Vgh_
p804
sVProvince
p805
V\u4e91\u5357
p806
sVPYInitial
p807
VYNDMQJYZXYXGS
p808
sVRemarkName
p809
g36
sVIsOwner
p810
I0
sVSex
p811
I0
sVStarFriend
p812
I0
sVHideInputBarFlag
p813
I0
sVChatRoomId
p814
I0
sVEncryChatRoomId
p815
g36
sVAttrStatus
p816
I0
sVStatues
p817
I0
sa(dp818
VUserName
p819
V@62ff599236b93b195a0c178dfd76ff8e
p820
sVCity
p821
V\u6606\u660e
p822
sVSnsFlag
p823
I0
sVDisplayName
p824
g36
sVUniFriend
p825
I0
sVMemberCount
p826
I0
sVOwnerUin
p827
I0
sVMemberList
p828
(lp829
sVAlias
p830
VMr_ZongAn
p831
sVPYQuanPin
p832
VMrZong
p833
sVSignature
p834
VJust Do IT\uff0c\u5f88\u591a\u5b69\u5b50\u542c\u4e86\u4e54\u4e39\u7684\u8bdd\uff0c\u4ece\u6b64\u8fdb\u5165\u4e86IT\u884c\u4e1a\u3002
p835
sVRemarkPYInitial
p836
g36
sVContactFlag
p837
I3
sVUin
p838
I0
sVNickName
p839
VMrZong
p840
sVAppAccountFlag
p841
I0
sVVerifyFlag
p842
I8
sVRemarkPYQuanPin
p843
g36
sVHeadImgUrl
p844
V/cgi-bin/mmwebwx-bin/webwxgeticon?seq=608360071&username=@62ff599236b93b195a0c178dfd76ff8e&skey=@crypt_5c45189f_47d32b4b8a08da80813ee1cc1380d6c0
p845
sVKeyWord
p846
Vgh_
p847
sVProvince
p848
V\u4e91\u5357
p849
sVPYInitial
p850
VMRZONG
p851
sVRemarkName
p852
g36
sVIsOwner
p853
I0
sVSex
p854
I0
sVStarFriend
p855
I0
sVHideInputBarFlag
p856
I0
sVChatRoomId
p857
I0
sVEncryChatRoomId
p858
g36
sVAttrStatus
p859
I0
sVStatues
p860
I0
sa(dp861
VUserName
p862
V@eccbfc6178f8643884656aed5e410666
p863
sVCity
p864
V\u6606\u660e
p865
sVSnsFlag
p866
I0
sVDisplayName
p867
g36
sVUniFriend
p868
I0
sVMemberCount
p869
I0
sVOwnerUin
p870
I0
sVMemberList
p871
(lp872
sVAlias
p873
g36
sVPYQuanPin
p874
Vyunnanongjinhuahuiyouxiangongsi
p875
sVSignature
p876
V\u56fd\u5185\u8d38\u6613\u3001\u7269\u8d44\u4f9b\u9500\uff0c\u8fdb\u51fa\u53e3\u8d38\u6613\uff0c\u7535\u5b50\u5546\u52a1\uff0c\u82b1\u5349\u7684\u79cd\u690d\u53ca\u9500\u552e\u3002
p877
sVRemarkPYInitial
p878
g36
sVContactFlag
p879
I3
sVUin
p880
I0
sVNickName
p881
V\u4e91\u5357\u519c\u9526\u82b1\u5349\u6709\u9650\u516c\u53f8
p882
sVAppAccountFlag
p883
I0
sVVerifyFlag
p884
I24
sVRemarkPYQuanPin
p885
g36
sVHeadImgUrl
p886
V/cgi-bin/mmwebwx-bin/webwxgeticon?seq=608360076&username=@eccbfc6178f8643884656aed5e410666&skey=@crypt_5c45189f_47d32b4b8a08da80813ee1cc1380d6c0
p887
sVKeyWord
p888
Vgh_
p889
sVProvince
p890
V\u4e91\u5357
p891
sVPYInitial
p892
VYNNJHHYXGS
p893
sVRemarkName
p894
g36
sVIsOwner
p895
I0
sVSex
p896
I0
sVStarFriend
p897
I0
sVHideInputBarFlag
p898
I0
sVChatRoomId
p899
I0
sVEncryChatRoomId
p900
g36
sVAttrStatus
p901
I0
sVStatues
p902
I0
sa(dp903
VUserName
p904
V@ee86ab542e7f0602ae40fd40d4f1a627
p905
sVCity
p906
V\u6606\u660e
p907
sVSnsFlag
p908
I0
sVDisplayName
p909
g36
sVUniFriend
p910
I0
sVMemberCount
p911
I0
sVOwnerUin
p912
I0
sVMemberList
p913
(lp914
sVAlias
p915
g36
sVPYQuanPin
p916
Vyunnayinruankejiyouxiangongsi
p917
sVSignature
p918
V\u4f01\u4e1a\u7f51\u7edc\u54c1\u724c\u5ba3\u4f20\u3001\u7f51\u7edc\u8425\u9500\uff0c\u4f01\u4e1a\u7f51\u7ad9\u8ba2\u5236\u4e0e\u63a8\u5e7f\uff1b\u5fae\u4fe1\u5546\u57ce\u3001\u5fae\u4fe1\u8425\u9500\u3001\u5fae\u4fe1\u516c\u4f17\u5e73\u53f0\uff1bAPP\u5546\u57ce\u53ca\u5176\u4ed6\u8f6f\u4ef6\u5f00\u53d1\uff1b\u4f01\u4e1aCRM\u3001OA\u53caERP\u7cfb\u7edf\u7684\u5f00\u53d1\u4e0e\u642d\u5efa\u7b49\u4e1a\u52a1\u3002
p919
sVRemarkPYInitial
p920
g36
sVContactFlag
p921
I1
sVUin
p922
I0
sVNickName
p923
V\u4e91\u5357\u94f6\u8f6f\u79d1\u6280\u6709\u9650\u516c\u53f8
p924
sVAppAccountFlag
p925
I0
sVVerifyFlag
p926
I24
sVRemarkPYQuanPin
p927
g36
sVHeadImgUrl
p928
V/cgi-bin/mmwebwx-bin/webwxgeticon?seq=609230006&username=@ee86ab542e7f0602ae40fd40d4f1a627&skey=@crypt_5c45189f_47d32b4b8a08da80813ee1cc1380d6c0
p929
sVKeyWord
p930
Vgh_
p931
sVProvince
p932
V\u4e91\u5357
p933
sVPYInitial
p934
VYNYRKJYXGS
p935
sVRemarkName
p936
g36
sVIsOwner
p937
I0
sVSex
p938
I0
sVStarFriend
p939
I0
sVHideInputBarFlag
p940
I0
sVChatRoomId
p941
I0
sVEncryChatRoomId
p942
g36
sVAttrStatus
p943
I0
sVStatues
p944
I0
sa(dp945
VUserName
p946
V@232630d3c39f1e82e919db3f72669164
p947
sVCity
p948
V\u6606\u660e
p949
sVSnsFlag
p950
I0
sVDisplayName
p951
g36
sVUniFriend
p952
I0
sVMemberCount
p953
I0
sVOwnerUin
p954
I0
sVMemberList
p955
(lp956
sVAlias
p957
g36
sVPYQuanPin
p958
Vhongxinghaoyunkuajingwuliupingtai
p959
sVSignature
p960
V\u7acb\u8db3\u4e91\u5357\uff0c\u9762\u5411\u4e1c\u5357\u4e9a\uff0c\u8f90\u5c04\u56fd\u5185\u7684\u8de8\u5883\u7269\u6d41\u516c\u4f17\u5e73\u53f0\u3002\u81f4\u529b\u642d\u5efa\u6e44\u516c\u6cb3\u6b21\u533a\u57df\u8de8\u5883\u8d27\u8fd0\u8f66\u8f86\u8fd0\u529b\u6c60\uff0c\u6784\u5efa\u8de8\u5883\u7269\u6d41\u4ea7\u4e1a\u751f\u6001\u5708\u3002\u4e3a\u8f66\u4e3b\u548c\u8d27\u4e3b\u63d0\u4f9b\u76f4\u63a5\u7ebf\u4e0a\u5bf9\u63a5\u7684\u529f\u80fd\uff0c\u53ca\u65f6\u83b7\u53d6\u8d27\u6e90\u53ca\u8f66\u6e90,\u5b8c\u6210\u63a5\u5355\u3001\u8fd0\u8f93\u3001\u6536\u8d27\u3001\u6536\u6b3e\u7b49\u8fc7\u7a0b\u3002
p961
sVRemarkPYInitial
p962
g36
sVContactFlag
p963
I3
sVUin
p964
I0
sVNickName
p965
V\u5b8f\u661f\u597d\u8fd0\u8de8\u5883\u7269\u6d41\u5e73\u53f0
p966
sVAppAccountFlag
p967
I0
sVVerifyFlag
p968
I24
sVRemarkPYQuanPin
p969
g36
sVHeadImgUrl
p970
V/cgi-bin/mmwebwx-bin/webwxgeticon?seq=623474693&username=@232630d3c39f1e82e919db3f72669164&skey=@crypt_5c45189f_47d32b4b8a08da80813ee1cc1380d6c0
p971
sVKeyWord
p972
Vgh_
p973
sVProvince
p974
V\u4e91\u5357
p975
sVPYInitial
p976
VHXHYKJWLPT
p977
sVRemarkName
p978
g36
sVIsOwner
p979
I0
sVSex
p980
I0
sVStarFriend
p981
I0
sVHideInputBarFlag
p982
I0
sVChatRoomId
p983
I0
sVEncryChatRoomId
p984
g36
sVAttrStatus
p985
I0
sVStatues
p986
I0
sassS'loginInfo'
p987
(dp988
S'SyncKey'
p989
(dp990
VCount
p991
I4
sVList
p992
(lp993
(dp994
VVal
p995
I623474730
sVKey
p996
I1
sa(dp997
VVal
p998
I623474732
sVKey
p999
I2
sa(dp1000
VVal
p1001
I623474722
sVKey
p1002
I3
sa(dp1003
VVal
p1004
I1493200441
sVKey
p1005
I1000
sassS'syncUrl'
p1006
S'https://webpush.wx2.qq.com/cgi-bin/mmwebwx-bin'
p1007
sS'skey'
p1008
V@crypt_5c45189f_47d32b4b8a08da80813ee1cc1380d6c0
p1009
sS'wxuin'
p1010
V3496066292
p1011
sS'synckey'
p1012
S'1_623474730|2_623474732|3_623474722|1000_1493200441'
p1013
sS'url'
p1014
Vhttps://wx2.qq.com/cgi-bin/mmwebwx-bin
p1015
sS'pass_ticket'
p1016
VwZ6IaCdJh4vgFzNfu%2BVgwC1w8GUH7iV4pU%2Bdqlj01z9nkbSdRetGrIaHb3ePhpnV
p1017
sS'wxsid'
p1018
VlDzzo5rGioZ/X6g5
p1019
sS'InviteStartCount'
p1020
I40
sS'deviceid'
p1021
S'e275694057685206'
p1022
sS'fileUrl'
p1023
S'https://file.wx2.qq.com/cgi-bin/mmwebwx-bin'
p1024
sS'BaseRequest'
p1025
(dp1026
g38
g1011
sS'Skey'
p1027
g1009
sS'DeviceID'
p1028
g1017
sS'Sid'
p1029
g1019
ssS'User'
p1030
ccopy_reg
_reconstructor
p1031
(citchat.storage.templates
User
p1032
c__builtin__
dict
p1033
(dp1034
g27
g22
sg28
g29
sg30
g29
sg31
I0
sg33
g34
sg35
g36
sg37
g36
sg61
I1
sg39
I0
sg40
I0
sg41
g29
sg42
g29
sg43
g36
sg44
g36
sg45
I0
sg46
I0
sg47
I1
sg48
g29
sg49
I0
sg52
I0
sg50
I1
sg51
I0
sg32
I0
sg53
g29
sg54
g36
sg55
I0
sg56
g57
sg58
g36
sg59
g60
sg38
L3496066292L
sg62
I0
sg63
I0
stp1035
Rp1036
(dp1037
g27
g22
sg28
g29
sg30
g29
sg31
I0
sg33
g34
sg35
g36
sg37
g36
sg61
I1
sg39
I0
sg40
I0
sg41
g29
sg42
g29
sg43
g36
sg44
g36
sg45
I0
sg46
I0
sg47
I1
sg48
g29
sg49
I0
sg52
I0
sg50
I1
sg51
I0
sg32
I0
sg53
g29
sg54
g36
sg55
I0
sg56
g57
sg58
g36
sg59
g60
sg38
L3496066292L
sg62
I0
sg63
I0
sbss.